(dp0
cnumpy.core.multiarray
scalar
p1
(cnumpy
dtype
p2
(S'i8'
p3
I0
I1
tp4
Rp5
(I3
S'<'
p6
NNNI-1
I-1
I0
tp7
bS'\x00\x00\x00\x00\x00\x00\x00\x00'
p8
tp9
Rp10
(lp11
S'ALSFRS_Total_last_zscore'
p12
aS'ALSFRS_Total_slope_mean_zscore'
p13
aS'weight_mean_zscore'
p14
aS'weight_pct_diff_zscore'
p15
aS'Age_last_zscore'
p16
asg1
(g5
S'\x01\x00\x00\x00\x00\x00\x00\x00'
p17
tp18
Rp19
(lp20
g12
ag13
ag14
ag15
ag16
as.