(dp0
cnumpy.core.multiarray
scalar
p1
(cnumpy
dtype
p2
(S'i8'
p3
I0
I1
tp4
Rp5
(I3
S'<'
p6
NNNI-1
I-1
I0
tp7
bS'\x00\x00\x00\x00\x00\x00\x00\x00'
p8
tp9
Rp10
(lp11
S'bp_systolic'
p12
aS'pulse'
p13
aS'weight'
p14
aS'temperature'
p15
aS'height'
p16
aS'bp_diastolic'
p17
asg1
(g5
S'\x01\x00\x00\x00\x00\x00\x00\x00'
p18
tp19
Rp20
(lp21
g14
ag13
aS'respiratory_rate'
p22
ag17
aS'Race'
p23
ag15
asg1
(g5
S'\x02\x00\x00\x00\x00\x00\x00\x00'
p24
tp25
Rp26
(lp27
g16
aS'BMI'
p28
ag17
ag12
ag13
ag14
as.