(dp0
S'family_ALS_hist'
p1
(dp2
S'funcs'
p3
c__builtin__
set
p4
((lp5
cvectorizing_funcs
ts_last_boolean
p6
atp7
Rp8
sS'feature_name'
p9
g1
sS'feature_type'
p10
S'ts'
p11
sS'derived_features'
p12
g4
((lp13
S'family_ALS_hist_last'
p14
atp15
Rp16
ssS'onset_site'
p17
(dp18
g3
g4
((lp19
cvectorizing_funcs
apply_scalar_feature_to_dummies
p20
atp21
Rp22
sg9
g17
sg10
S'dummy'
p23
sg12
cpandas.core.index
_new_Index
p24
(cpandas.core.index
Index
p25
(dp26
S'data'
p27
cnumpy.core.multiarray
_reconstruct
p28
(cnumpy
ndarray
p29
(I0
tp30
S'b'
p31
tp32
Rp33
(I1
(L4L
tp34
cnumpy
dtype
p35
(S'O8'
p36
I0
I1
tp37
Rp38
(I3
S'|'
p39
NNNI-1
I-1
I63
tp40
bI00
(lp41
S'onset_site_Bulbar'
p42
aS'onset_site_Limb'
p43
aS'onset_site_Limb and Bulbar'
p44
aS'onset_site_Other'
p45
atp46
bsS'name'
p47
Nstp48
Rp49
ssS'weight'
p50
(dp51
g3
g4
((lp52
cvectorizing_funcs
ts_pct_diff
p53
acvectorizing_funcs
ts_last_value
p54
acvectorizing_funcs
ts_mean_slope
p55
acvectorizing_funcs
ts_stats
p56
atp57
Rp58
sg9
g50
sg10
g11
sg12
g4
((lp59
S'weight_last'
p60
aS'weight_pct_diff'
p61
aS'weight_mean_slope'
p62
aS'weight_mean'
p63
atp64
Rp65
ssS'Sodium'
p66
(dp67
g3
g4
((lp68
g53
ag54
ag55
ag56
atp69
Rp70
sg9
g66
sg10
g11
sg12
g4
((lp71
S'Sodium_mean_slope'
p72
aS'Sodium_mean'
p73
aS'Sodium_pct_diff'
p74
aS'Sodium_last'
p75
atp76
Rp77
ssS'if_use_Riluzole'
p78
(dp79
g3
g4
((lp80
g6
atp81
Rp82
sg9
g78
sg10
g11
sg12
g4
((lp83
S'if_use_Riluzole_last'
p84
atp85
Rp86
ssS'pulse'
p87
(dp88
g3
g4
((lp89
g53
ag54
ag55
ag56
atp90
Rp91
sg9
g87
sg10
g11
sg12
g4
((lp92
S'pulse_last'
p93
aS'pulse_mean'
p94
aS'pulse_pct_diff'
p95
aS'pulse_mean_slope'
p96
atp97
Rp98
ssS'White Blood Cell (WBC)'
p99
(dp100
g3
g4
((lp101
g53
ag54
ag55
ag56
atp102
Rp103
sg9
g99
sg10
g11
sg12
g4
((lp104
S'White Blood Cell (WBC)_mean_slope'
p105
aS'White Blood Cell (WBC)_pct_diff'
p106
aS'White Blood Cell (WBC)_mean'
p107
aS'White Blood Cell (WBC)_last'
p108
atp109
Rp110
ssS'Albumin'
p111
(dp112
g3
g4
((lp113
g53
ag54
ag55
ag56
atp114
Rp115
sg9
g111
sg10
g11
sg12
g4
((lp116
S'Albumin_pct_diff'
p117
aS'Albumin_last'
p118
aS'Albumin_mean'
p119
aS'Albumin_mean_slope'
p120
atp121
Rp122
ssS'Chloride'
p123
(dp124
g3
g4
((lp125
g53
ag54
ag55
ag56
atp126
Rp127
sg9
g123
sg10
g11
sg12
g4
((lp128
S'Chloride_mean_slope'
p129
aS'Chloride_last'
p130
aS'Chloride_pct_diff'
p131
aS'Chloride_mean'
p132
atp133
Rp134
ssS'ALSFRS_Total'
p135
(dp136
g3
g4
((lp137
g53
ag54
ag55
ag56
atp138
Rp139
sg9
g135
sg10
g11
sg12
g4
((lp140
S'ALSFRS_Total_last'
p141
aS'ALSFRS_Total_mean_slope'
p142
aS'ALSFRS_Total_mean'
p143
aS'ALSFRS_Total_pct_diff'
p144
atp145
Rp146
ssS'Glucose'
p147
(dp148
g3
g4
((lp149
g53
ag54
ag55
ag56
atp150
Rp151
sg9
g147
sg10
g11
sg12
g4
((lp152
S'Glucose_mean'
p153
aS'Glucose_mean_slope'
p154
aS'Glucose_pct_diff'
p155
aS'Glucose_last'
p156
atp157
Rp158
ssS'Alkaline Phosphatase'
p159
(dp160
g3
g4
((lp161
g53
ag54
ag55
ag56
atp162
Rp163
sg9
g159
sg10
g11
sg12
g4
((lp164
S'Alkaline Phosphatase_mean'
p165
aS'Alkaline Phosphatase_pct_diff'
p166
aS'Alkaline Phosphatase_mean_slope'
p167
aS'Alkaline Phosphatase_last'
p168
atp169
Rp170
ssS'bp_systolic'
p171
(dp172
g3
g4
((lp173
g53
ag54
ag55
ag56
atp174
Rp175
sg9
g171
sg10
g11
sg12
g4
((lp176
S'bp_systolic_last'
p177
aS'bp_systolic_pct_diff'
p178
aS'bp_systolic_mean'
p179
aS'bp_systolic_mean_slope'
p180
atp181
Rp182
ssS'Potassium'
p183
(dp184
g3
g4
((lp185
g53
ag54
ag55
ag56
atp186
Rp187
sg9
g183
sg10
g11
sg12
g4
((lp188
S'Potassium_pct_diff'
p189
aS'Potassium_mean'
p190
aS'Potassium_last'
p191
aS'Potassium_mean_slope'
p192
atp193
Rp194
ssS'BMI'
p195
(dp196
g3
g4
((lp197
g54
atp198
Rp199
sg9
g195
sg10
g11
sg12
g4
((lp200
S'BMI_last'
p201
atp202
Rp203
ssS'bp_diastolic'
p204
(dp205
g3
g4
((lp206
g53
ag54
ag55
ag56
atp207
Rp208
sg9
g204
sg10
g11
sg12
g4
((lp209
S'bp_diastolic_mean_slope'
p210
aS'bp_diastolic_pct_diff'
p211
aS'bp_diastolic_last'
p212
aS'bp_diastolic_mean'
p213
atp214
Rp215
ssS'fvc_percent'
p216
(dp217
g3
g4
((lp218
g53
ag54
ag55
ag56
atp219
Rp220
sg9
g216
sg10
g11
sg12
g4
((lp221
S'fvc_percent_last'
p222
aS'fvc_percent_pct_diff'
p223
aS'fvc_percent_mean'
p224
aS'fvc_percent_mean_slope'
p225
atp226
Rp227
ssS'Phosphorus'
p228
(dp229
g3
g4
((lp230
g53
ag54
ag55
ag56
atp231
Rp232
sg9
g228
sg10
g11
sg12
g4
((lp233
S'Phosphorus_mean_slope'
p234
aS'Phosphorus_mean'
p235
aS'Phosphorus_pct_diff'
p236
aS'Phosphorus_last'
p237
atp238
Rp239
ssS'Gender'
p240
(dp241
g3
g4
((lp242
g20
atp243
Rp244
sg9
g240
sg10
g23
sg12
g24
(g25
(dp245
g27
g28
(g29
(I0
tp246
g31
tp247
Rp248
(I1
(L2L
tp249
g38
I00
(lp250
S'Gender_F'
p251
aS'Gender_M'
p252
atp253
bsg47
Nstp254
Rp255
ssS'Age'
p256
(dp257
g3
g4
((lp258
g54
atp259
Rp260
sg9
g256
sg10
g11
sg12
g4
((lp261
S'Age_last'
p262
atp263
Rp264
ssS'respiratory_rate'
p265
(dp266
g3
g4
((lp267
g53
ag54
ag55
ag56
atp268
Rp269
sg9
g265
sg10
g11
sg12
g4
((lp270
S'respiratory_rate_mean_slope'
p271
aS'respiratory_rate_pct_diff'
p272
aS'respiratory_rate_last'
p273
aS'respiratory_rate_mean'
p274
atp275
Rp276
ssS'Calcium'
p277
(dp278
g3
g4
((lp279
g53
ag54
ag55
ag56
atp280
Rp281
sg9
g277
sg10
g11
sg12
g4
((lp282
S'Calcium_mean_slope'
p283
aS'Calcium_last'
p284
aS'Calcium_mean'
p285
aS'Calcium_pct_diff'
p286
atp287
Rp288
ssS'Race'
p289
(dp290
g3
g4
((lp291
g20
atp292
Rp293
sg9
g289
sg10
g23
sg12
g24
(g25
(dp294
g27
g28
(g29
(I0
tp295
g31
tp296
Rp297
(I1
(L7L
tp298
g38
I00
(lp299
S'Race_American Indian'
p300
aS'Race_Asian'
p301
aS'Race_Black'
p302
aS'Race_Hispanic'
p303
aS'Race_Other'
p304
aS'Race_Unknown'
p305
aS'Race_White'
p306
atp307
bsg47
Nstp308
Rp309
ssS'mouth'
p310
(dp311
g3
g4
((lp312
g53
ag54
ag55
ag56
atp313
Rp314
sg9
g310
sg10
g11
sg12
g4
((lp315
S'mouth_mean_slope'
p316
aS'mouth_mean'
p317
aS'mouth_last'
p318
aS'mouth_pct_diff'
p319
atp320
Rp321
ssS'hands'
p322
(dp323
g3
g4
((lp324
g53
ag54
ag55
ag56
atp325
Rp326
sg9
g322
sg10
g11
sg12
g4
((lp327
S'hands_mean'
p328
aS'hands_last'
p329
aS'hands_mean_slope'
p330
aS'hands_pct_diff'
p331
atp332
Rp333
ssS'onset_delta'
p334
(dp335
g3
g4
((lp336
g54
atp337
Rp338
sg9
g334
sg10
g11
sg12
g4
((lp339
S'onset_delta_last'
p340
atp341
Rp342
ssS'Bilirubin (Total)'
p343
(dp344
g3
g4
((lp345
g53
ag54
ag55
ag56
atp346
Rp347
sg9
g343
sg10
g11
sg12
g4
((lp348
S'Bilirubin (Total)_pct_diff'
p349
aS'Bilirubin (Total)_mean'
p350
aS'Bilirubin (Total)_last'
p351
aS'Bilirubin (Total)_mean_slope'
p352
atp353
Rp354
ssS'Protein'
p355
(dp356
g3
g4
((lp357
g53
ag54
ag55
ag56
atp358
Rp359
sg9
g355
sg10
g11
sg12
g4
((lp360
S'Protein_mean'
p361
aS'Protein_last'
p362
aS'Protein_pct_diff'
p363
aS'Protein_mean_slope'
p364
atp365
Rp366
ssS'temperature'
p367
(dp368
g3
g4
((lp369
g53
ag54
ag55
ag56
atp370
Rp371
sg9
g367
sg10
g11
sg12
g4
((lp372
S'temperature_pct_diff'
p373
aS'temperature_mean_slope'
p374
aS'temperature_last'
p375
aS'temperature_mean'
p376
atp377
Rp378
ssS'respiratory'
p379
(dp380
g3
g4
((lp381
g53
ag54
ag55
ag56
atp382
Rp383
sg9
g379
sg10
g11
sg12
g4
((lp384
S'respiratory_pct_diff'
p385
aS'respiratory_last'
p386
aS'respiratory_mean'
p387
aS'respiratory_mean_slope'
p388
atp389
Rp390
ssS'AST(SGOT)'
p391
(dp392
g3
g4
((lp393
g53
ag54
ag55
ag56
atp394
Rp395
sg9
g391
sg10
g11
sg12
g4
((lp396
S'AST(SGOT)_pct_diff'
p397
aS'AST(SGOT)_last'
p398
aS'AST(SGOT)_mean_slope'
p399
aS'AST(SGOT)_mean'
p400
atp401
Rp402
ssS'Hemoglobin'
p403
(dp404
g3
g4
((lp405
g53
ag54
ag55
ag56
atp406
Rp407
sg9
g403
sg10
g11
sg12
g4
((lp408
S'Hemoglobin_mean_slope'
p409
aS'Hemoglobin_pct_diff'
p410
aS'Hemoglobin_mean'
p411
aS'Hemoglobin_last'
p412
atp413
Rp414
ssS'Platelets'
p415
(dp416
g3
g4
((lp417
g53
ag54
ag55
ag56
atp418
Rp419
sg9
g415
sg10
g11
sg12
g4
((lp420
S'Platelets_pct_diff'
p421
aS'Platelets_mean'
p422
aS'Platelets_mean_slope'
p423
aS'Platelets_last'
p424
atp425
Rp426
ssS'Blood Urea Nitrogen (BUN)'
p427
(dp428
g3
g4
((lp429
g53
ag54
ag55
ag56
atp430
Rp431
sg9
g427
sg10
g11
sg12
g4
((lp432
S'Blood Urea Nitrogen (BUN)_last'
p433
aS'Blood Urea Nitrogen (BUN)_mean'
p434
aS'Blood Urea Nitrogen (BUN)_pct_diff'
p435
aS'Blood Urea Nitrogen (BUN)_mean_slope'
p436
atp437
Rp438
ssS'Creatinine'
p439
(dp440
g3
g4
((lp441
g53
ag54
ag55
ag56
atp442
Rp443
sg9
g439
sg10
g11
sg12
g4
((lp444
S'Creatinine_mean_slope'
p445
aS'Creatinine_mean'
p446
aS'Creatinine_last'
p447
aS'Creatinine_pct_diff'
p448
atp449
Rp450
ssS'ALT(SGPT)'
p451
(dp452
g3
g4
((lp453
g53
ag54
ag55
ag56
atp454
Rp455
sg9
g451
sg10
g11
sg12
g4
((lp456
S'ALT(SGPT)_mean'
p457
aS'ALT(SGPT)_last'
p458
aS'ALT(SGPT)_mean_slope'
p459
aS'ALT(SGPT)_pct_diff'
p460
atp461
Rp462
ss.