(dp0
S'family_ALS_hist'
p1
(dp2
S'funcs'
p3
c__builtin__
set
p4
((lp5
c__main__
ts_last_boolean
p6
atp7
Rp8
sS'feature_name'
p9
g1
sS'feature_type'
p10
S'ts'
p11
sS'derived_features'
p12
cpandas.core.index
_new_Index
p13
(cpandas.core.index
Index
p14
(dp15
S'data'
p16
cnumpy.core.multiarray
_reconstruct
p17
(cnumpy
ndarray
p18
(I0
tp19
S'b'
p20
tp21
Rp22
(I1
(L1L
tp23
cnumpy
dtype
p24
(S'O8'
p25
I0
I1
tp26
Rp27
(I3
S'|'
p28
NNNI-1
I-1
I63
tp29
bI00
(lp30
S'family_ALS_hist_last'
p31
atp32
bsS'name'
p33
Nstp34
Rp35
ssS'bp_systolic'
p36
(dp37
g3
g4
((lp38
c__main__
ts_mean_slope
p39
ac__main__
ts_stats
p40
ac__main__
ts_pct_diff
p41
atp42
Rp43
sg9
g36
sg10
g11
sg12
g13
(g14
(dp44
g16
g17
(g18
(I0
tp45
g20
tp46
Rp47
(I1
(L1L
tp48
g27
I00
(lp49
S'bp_systolic_pct_diff'
p50
atp51
bsg33
Nstp52
Rp53
ssS'Gender'
p54
(dp55
g3
g4
((lp56
c__main__
apply_scalar_feature_to_dummies
p57
atp58
Rp59
sg9
g54
sg10
S'dummy'
p60
sg12
g13
(g14
(dp61
g16
g17
(g18
(I0
tp62
g20
tp63
Rp64
(I1
(L2L
tp65
g27
I00
(lp66
S'F'
p67
aS'M'
p68
atp69
bsg33
Nstp70
Rp71
ssS'Age'
p72
(dp73
g3
g4
((lp74
c__main__
ts_last_value
p75
atp76
Rp77
sg9
g72
sg10
g11
sg12
g13
(g14
(dp78
g16
g17
(g18
(I0
tp79
g20
tp80
Rp81
(I1
(L1L
tp82
g27
I00
(lp83
S'Age_last'
p84
atp85
bsg33
Nstp86
Rp87
ssS'respiratory_rate'
p88
(dp89
g3
g4
((lp90
g39
ag40
ag41
atp91
Rp92
sg9
g88
sg10
g11
sg12
g13
(g14
(dp93
g16
g17
(g18
(I0
tp94
g20
tp95
Rp96
(I1
(L1L
tp97
g27
I00
(lp98
S'respiratory_rate_pct_diff'
p99
atp100
bsg33
Nstp101
Rp102
ssS'pulse'
p103
(dp104
g3
g4
((lp105
g39
ag40
ag41
atp106
Rp107
sg9
g103
sg10
g11
sg12
g13
(g14
(dp108
g16
g17
(g18
(I0
tp109
g20
tp110
Rp111
(I1
(L1L
tp112
g27
I00
(lp113
S'pulse_pct_diff'
p114
atp115
bsg33
Nstp116
Rp117
ssS'height'
p118
(dp119
g3
g4
((lp120
g75
atp121
Rp122
sg9
g118
sg10
g11
sg12
g13
(g14
(dp123
g16
g17
(g18
(I0
tp124
g20
tp125
Rp126
(I1
(L1L
tp127
g27
I00
(lp128
S'height_last'
p129
atp130
bsg33
Nstp131
Rp132
ssS'Race'
p133
(dp134
g3
g4
((lp135
g57
atp136
Rp137
sg9
g133
sg10
g60
sg12
g13
(g14
(dp138
g16
g17
(g18
(I0
tp139
g20
tp140
Rp141
(I1
(L6L
tp142
g27
I00
(lp143
S'Asian'
p144
aS'Black'
p145
aS'Hispanic'
p146
aS'Other'
p147
aS'Unknown'
p148
aS'White'
p149
atp150
bsg33
Nstp151
Rp152
ssS'onset_delta'
p153
(dp154
g3
g4
((lp155
g75
atp156
Rp157
sg9
g153
sg10
g11
sg12
g13
(g14
(dp158
g16
g17
(g18
(I0
tp159
g20
tp160
Rp161
(I1
(L1L
tp162
g27
I00
(lp163
S'onset_delta_last'
p164
atp165
bsg33
Nstp166
Rp167
ssS'Albumin'
p168
(dp169
g3
g4
((lp170
g75
ag39
ag40
ag41
atp171
Rp172
sg9
g168
sg10
g11
sg12
g13
(g14
(dp173
g16
g17
(g18
(I0
tp174
g20
tp175
Rp176
(I1
(L1L
tp177
g27
I00
(lp178
S'Albumin_pct_diff'
p179
atp180
bsg33
Nstp181
Rp182
ssS'ALSFRS_Total'
p183
(dp184
g3
g4
((lp185
g75
ag39
ag40
ag41
atp186
Rp187
sg9
g183
sg10
g11
sg12
g13
(g14
(dp188
g16
g17
(g18
(I0
tp189
g20
tp190
Rp191
(I1
(L1L
tp192
g27
I00
(lp193
S'ALSFRS_Total_pct_diff'
p194
atp195
bsg33
Nstp196
Rp197
ssS'weight'
p198
(dp199
g3
g4
((lp200
g39
ag40
ag41
atp201
Rp202
sg9
g198
sg10
g11
sg12
g13
(g14
(dp203
g16
g17
(g18
(I0
tp204
g20
tp205
Rp206
(I1
(L1L
tp207
g27
I00
(lp208
S'weight_pct_diff'
p209
atp210
bsg33
Nstp211
Rp212
ssS'temperature'
p213
(dp214
g3
g4
((lp215
g39
ag40
ag41
atp216
Rp217
sg9
g213
sg10
g11
sg12
g13
(g14
(dp218
g16
g17
(g18
(I0
tp219
g20
tp220
Rp221
(I1
(L1L
tp222
g27
I00
(lp223
S'temperature_pct_diff'
p224
atp225
bsg33
Nstp226
Rp227
ssS'BMI'
p228
(dp229
g3
g4
((lp230
g75
atp231
Rp232
sg9
g228
sg10
g11
sg12
g13
(g14
(dp233
g16
g17
(g18
(I0
tp234
g20
tp235
Rp236
(I1
(L1L
tp237
g27
I00
(lp238
S'BMI_last'
p239
atp240
bsg33
Nstp241
Rp242
ssS'bp_diastolic'
p243
(dp244
g3
g4
((lp245
g39
ag40
ag41
atp246
Rp247
sg9
g243
sg10
g11
sg12
g13
(g14
(dp248
g16
g17
(g18
(I0
tp249
g20
tp250
Rp251
(I1
(L1L
tp252
g27
I00
(lp253
S'bp_diastolic_pct_diff'
p254
atp255
bsg33
Nstp256
Rp257
ssS'Creatinine'
p258
(dp259
g3
g4
((lp260
g75
ag39
ag40
ag41
atp261
Rp262
sg9
g258
sg10
g11
sg12
g13
(g14
(dp263
g16
g17
(g18
(I0
tp264
g20
tp265
Rp266
(I1
(L1L
tp267
g27
I00
(lp268
S'Creatinine_pct_diff'
p269
atp270
bsg33
Nstp271
Rp272
ssS'fvc_percent'
p273
(dp274
g3
g4
((lp275
g41
atp276
Rp277
sg9
g273
sg10
g11
sg12
g13
(g14
(dp278
g16
g17
(g18
(I0
tp279
g20
tp280
Rp281
(I1
(L1L
tp282
g27
I00
(lp283
S'fvc_percent_pct_diff'
p284
atp285
bsg33
Nstp286
Rp287
ss.