(dp0
S'family_ALS_hist'
p1
(dp2
S'funcs'
p3
c__builtin__
set
p4
((lp5
cvectorizing_funcs
ts_last_boolean
p6
atp7
Rp8
sS'feature_name'
p9
g1
sS'feature_type'
p10
S'ts'
p11
sS'derived_features'
p12
g4
((lp13
S'family_ALS_hist_last'
p14
atp15
Rp16
ssS'weight'
p17
(dp18
g3
g4
((lp19
cvectorizing_funcs
ts_pct_diff
p20
acvectorizing_funcs
ts_stats
p21
acvectorizing_funcs
ts_mean_slope
p22
atp23
Rp24
sg9
g17
sg10
g11
sg12
g4
((lp25
S'weight_median'
p26
aS'weight_pct_diff'
p27
aS'weight_std'
p28
aS'weight_mean_slope'
p29
aS'weight_mean'
p30
atp31
Rp32
ssS'Gender'
p33
(dp34
g3
g4
((lp35
cvectorizing_funcs
apply_scalar_feature_to_dummies
p36
atp37
Rp38
sg9
g33
sg10
S'dummy'
p39
sg12
cpandas.core.index
_new_Index
p40
(cpandas.core.index
Index
p41
(dp42
S'data'
p43
cnumpy.core.multiarray
_reconstruct
p44
(cnumpy
ndarray
p45
(I0
tp46
S'b'
p47
tp48
Rp49
(I1
(L2L
tp50
cnumpy
dtype
p51
(S'O8'
p52
I0
I1
tp53
Rp54
(I3
S'|'
p55
NNNI-1
I-1
I63
tp56
bI00
(lp57
S'F'
p58
aS'M'
p59
atp60
bsS'name'
p61
Nstp62
Rp63
ssS'Age'
p64
(dp65
g3
g4
((lp66
cvectorizing_funcs
ts_last_value
p67
atp68
Rp69
sg9
g64
sg10
g11
sg12
g4
((lp70
S'Age_last'
p71
atp72
Rp73
ssS'respiratory_rate'
p74
(dp75
g3
g4
((lp76
g20
ag21
ag22
atp77
Rp78
sg9
g74
sg10
g11
sg12
g4
((lp79
S'respiratory_rate_mean_slope'
p80
aS'respiratory_rate_pct_diff'
p81
aS'respiratory_rate_median'
p82
aS'respiratory_rate_mean'
p83
aS'respiratory_rate_std'
p84
atp85
Rp86
ssS'pulse'
p87
(dp88
g3
g4
((lp89
g20
ag21
ag22
atp90
Rp91
sg9
g87
sg10
g11
sg12
g4
((lp92
S'pulse_median'
p93
aS'pulse_std'
p94
aS'pulse_mean_slope'
p95
aS'pulse_pct_diff'
p96
aS'pulse_mean'
p97
atp98
Rp99
ssS'height'
p100
(dp101
g3
g4
((lp102
g67
atp103
Rp104
sg9
g100
sg10
g11
sg12
g4
((lp105
S'height_last'
p106
atp107
Rp108
ssS'Race'
p109
(dp110
g3
g4
((lp111
g36
atp112
Rp113
sg9
g109
sg10
g39
sg12
g40
(g41
(dp114
g43
g44
(g45
(I0
tp115
g47
tp116
Rp117
(I1
(L6L
tp118
g54
I00
(lp119
S'Asian'
p120
aS'Black'
p121
aS'Hispanic'
p122
aS'Other'
p123
aS'Unknown'
p124
aS'White'
p125
atp126
bsg61
Nstp127
Rp128
ssS'onset_delta'
p129
(dp130
g3
g4
((lp131
g67
atp132
Rp133
sg9
g129
sg10
g11
sg12
g4
((lp134
S'onset_delta_last'
p135
atp136
Rp137
ssS'Albumin'
p138
(dp139
g3
g4
((lp140
g67
ag20
ag21
ag22
atp141
Rp142
sg9
g138
sg10
g11
sg12
g4
((lp143
S'Albumin_pct_diff'
p144
aS'Albumin_mean'
p145
aS'Albumin_std'
p146
aS'Albumin_mean_slope'
p147
aS'Albumin_last'
p148
aS'Albumin_median'
p149
atp150
Rp151
ssS'ALSFRS_Total'
p152
(dp153
g3
g4
((lp154
g67
ag20
ag21
ag22
atp155
Rp156
sg9
g152
sg10
g11
sg12
g4
((lp157
S'ALSFRS_Total_std'
p158
aS'ALSFRS_Total_mean'
p159
aS'ALSFRS_Total_mean_slope'
p160
aS'ALSFRS_Total_median'
p161
aS'ALSFRS_Total_last'
p162
aS'ALSFRS_Total_pct_diff'
p163
atp164
Rp165
ssS'temperature'
p166
(dp167
g3
g4
((lp168
g20
ag21
ag22
atp169
Rp170
sg9
g166
sg10
g11
sg12
g4
((lp171
S'temperature_pct_diff'
p172
aS'temperature_std'
p173
aS'temperature_mean_slope'
p174
aS'temperature_median'
p175
aS'temperature_mean'
p176
atp177
Rp178
ssS'BMI'
p179
(dp180
g3
g4
((lp181
g67
atp182
Rp183
sg9
g179
sg10
g11
sg12
g4
((lp184
S'BMI_last'
p185
atp186
Rp187
ssS'bp_diastolic'
p188
(dp189
g3
g4
((lp190
g20
ag21
ag22
atp191
Rp192
sg9
g188
sg10
g11
sg12
g4
((lp193
S'bp_diastolic_mean_slope'
p194
aS'bp_diastolic_pct_diff'
p195
aS'bp_diastolic_median'
p196
aS'bp_diastolic_mean'
p197
aS'bp_diastolic_std'
p198
atp199
Rp200
ssS'bp_systolic'
p201
(dp202
g3
g4
((lp203
g20
ag21
ag22
atp204
Rp205
sg9
g201
sg10
g11
sg12
g4
((lp206
S'bp_systolic_median'
p207
aS'bp_systolic_pct_diff'
p208
aS'bp_systolic_mean'
p209
aS'bp_systolic_std'
p210
aS'bp_systolic_mean_slope'
p211
atp212
Rp213
ssS'Creatinine'
p214
(dp215
g3
g4
((lp216
g67
ag20
ag21
ag22
atp217
Rp218
sg9
g214
sg10
g11
sg12
g4
((lp219
S'Creatinine_std'
p220
aS'Creatinine_mean_slope'
p221
aS'Creatinine_last'
p222
aS'Creatinine_mean'
p223
aS'Creatinine_pct_diff'
p224
aS'Creatinine_median'
p225
atp226
Rp227
ssS'fvc_percent'
p228
(dp229
g3
g4
((lp230
g20
atp231
Rp232
sg9
g228
sg10
g11
sg12
g4
((lp233
S'fvc_percent_pct_diff'
p234
atp235
Rp236
ss.