(dp0
S'family_ALS_hist'
p1
(dp2
S'funcs'
p3
c__builtin__
set
p4
((lp5
cvectorizing_funcs
ts_last_boolean
p6
atp7
Rp8
sS'feature_name'
p9
g1
sS'feature_type'
p10
S'ts'
p11
sS'derived_features'
p12
g4
((lp13
S'family_ALS_hist_last'
p14
atp15
Rp16
ssS'weight'
p17
(dp18
g3
g4
((lp19
cvectorizing_funcs
ts_pct_diff
p20
acvectorizing_funcs
ts_mean_slope
p21
acvectorizing_funcs
ts_stats
p22
atp23
Rp24
sg9
g17
sg10
g11
sg12
g4
((lp25
S'weight_median'
p26
aS'weight_pct_diff'
p27
aS'weight_std'
p28
aS'weight_mean_slope'
p29
aS'weight_mean'
p30
atp31
Rp32
ssS'Gender'
p33
(dp34
g3
g4
((lp35
cvectorizing_funcs
apply_scalar_feature_to_dummies
p36
atp37
Rp38
sg9
g33
sg10
S'dummy'
p39
sg12
cpandas.core.index
_new_Index
p40
(cpandas.core.index
Index
p41
(dp42
S'data'
p43
cnumpy.core.multiarray
_reconstruct
p44
(cnumpy
ndarray
p45
(I0
tp46
S'b'
p47
tp48
Rp49
(I1
(L2L
tp50
cnumpy
dtype
p51
(S'O8'
p52
I0
I1
tp53
Rp54
(I3
S'|'
p55
NNNI-1
I-1
I63
tp56
bI00
(lp57
S'F'
p58
aS'M'
p59
atp60
bsS'name'
p61
Nstp62
Rp63
ssS'Age'
p64
(dp65
g3
g4
((lp66
cvectorizing_funcs
ts_last_value
p67
atp68
Rp69
sg9
g64
sg10
g11
sg12
g4
((lp70
S'Age_last'
p71
atp72
Rp73
ssS'respiratory_rate'
p74
(dp75
g3
g4
((lp76
g20
ag21
ag22
atp77
Rp78
sg9
g74
sg10
g11
sg12
g4
((lp79
S'respiratory_rate_mean_slope'
p80
aS'respiratory_rate_pct_diff'
p81
aS'respiratory_rate_median'
p82
aS'respiratory_rate_mean'
p83
aS'respiratory_rate_std'
p84
atp85
Rp86
ssS'pulse'
p87
(dp88
g3
g4
((lp89
g20
ag21
ag22
atp90
Rp91
sg9
g87
sg10
g11
sg12
g4
((lp92
S'pulse_median'
p93
aS'pulse_std'
p94
aS'pulse_mean'
p95
aS'pulse_pct_diff'
p96
aS'pulse_mean_slope'
p97
atp98
Rp99
ssS'Race'
p100
(dp101
g3
g4
((lp102
g36
atp103
Rp104
sg9
g100
sg10
g39
sg12
g40
(g41
(dp105
g43
g44
(g45
(I0
tp106
g47
tp107
Rp108
(I1
(L6L
tp109
g54
I00
(lp110
S'Asian'
p111
aS'Black'
p112
aS'Hispanic'
p113
aS'Other'
p114
aS'Unknown'
p115
aS'White'
p116
atp117
bsg61
Nstp118
Rp119
ssS'mouth'
p120
(dp121
g3
g4
((lp122
g20
ag67
ag21
ag22
atp123
Rp124
sg9
g120
sg10
g11
sg12
g4
((lp125
S'mouth_mean_slope'
p126
aS'mouth_median'
p127
aS'mouth_mean'
p128
aS'mouth_last'
p129
aS'mouth_pct_diff'
p130
aS'mouth_std'
p131
atp132
Rp133
ssS'hands'
p134
(dp135
g3
g4
((lp136
g20
ag67
ag21
ag22
atp137
Rp138
sg9
g134
sg10
g11
sg12
g4
((lp139
S'hands_last'
p140
aS'hands_pct_diff'
p141
aS'hands_std'
p142
aS'hands_mean_slope'
p143
aS'hands_median'
p144
aS'hands_mean'
p145
atp146
Rp147
ssS'onset_delta'
p148
(dp149
g3
g4
((lp150
g67
atp151
Rp152
sg9
g148
sg10
g11
sg12
g4
((lp153
S'onset_delta_last'
p154
atp155
Rp156
ssS'Albumin'
p157
(dp158
g3
g4
((lp159
g20
ag67
ag21
ag22
atp160
Rp161
sg9
g157
sg10
g11
sg12
g4
((lp162
S'Albumin_pct_diff'
p163
aS'Albumin_mean'
p164
aS'Albumin_std'
p165
aS'Albumin_mean_slope'
p166
aS'Albumin_last'
p167
aS'Albumin_median'
p168
atp169
Rp170
ssS'ALSFRS_Total'
p171
(dp172
g3
g4
((lp173
g20
ag67
ag21
ag22
atp174
Rp175
sg9
g171
sg10
g11
sg12
g4
((lp176
S'ALSFRS_Total_median'
p177
aS'ALSFRS_Total_mean'
p178
aS'ALSFRS_Total_mean_slope'
p179
aS'ALSFRS_Total_std'
p180
aS'ALSFRS_Total_last'
p181
aS'ALSFRS_Total_pct_diff'
p182
atp183
Rp184
ssS'respiratory'
p185
(dp186
g3
g4
((lp187
g20
ag67
ag21
ag22
atp188
Rp189
sg9
g185
sg10
g11
sg12
g4
((lp190
S'respiratory_pct_diff'
p191
aS'respiratory_last'
p192
aS'respiratory_mean_slope'
p193
aS'respiratory_mean'
p194
aS'respiratory_std'
p195
aS'respiratory_median'
p196
atp197
Rp198
ssS'temperature'
p199
(dp200
g3
g4
((lp201
g20
ag21
ag22
atp202
Rp203
sg9
g199
sg10
g11
sg12
g4
((lp204
S'temperature_pct_diff'
p205
aS'temperature_std'
p206
aS'temperature_mean_slope'
p207
aS'temperature_median'
p208
aS'temperature_mean'
p209
atp210
Rp211
ssS'BMI'
p212
(dp213
g3
g4
((lp214
g67
atp215
Rp216
sg9
g212
sg10
g11
sg12
g4
((lp217
S'BMI_last'
p218
atp219
Rp220
ssS'bp_diastolic'
p221
(dp222
g3
g4
((lp223
g20
ag21
ag22
atp224
Rp225
sg9
g221
sg10
g11
sg12
g4
((lp226
S'bp_diastolic_mean_slope'
p227
aS'bp_diastolic_pct_diff'
p228
aS'bp_diastolic_median'
p229
aS'bp_diastolic_mean'
p230
aS'bp_diastolic_std'
p231
atp232
Rp233
ssS'bp_systolic'
p234
(dp235
g3
g4
((lp236
g20
ag21
ag22
atp237
Rp238
sg9
g234
sg10
g11
sg12
g4
((lp239
S'bp_systolic_median'
p240
aS'bp_systolic_pct_diff'
p241
aS'bp_systolic_mean'
p242
aS'bp_systolic_std'
p243
aS'bp_systolic_mean_slope'
p244
atp245
Rp246
ssS'Creatinine'
p247
(dp248
g3
g4
((lp249
g20
ag67
ag21
ag22
atp250
Rp251
sg9
g247
sg10
g11
sg12
g4
((lp252
S'Creatinine_std'
p253
aS'Creatinine_mean_slope'
p254
aS'Creatinine_last'
p255
aS'Creatinine_mean'
p256
aS'Creatinine_pct_diff'
p257
aS'Creatinine_median'
p258
atp259
Rp260
ssS'fvc_percent'
p261
(dp262
g3
g4
((lp263
g20
ag21
ag22
atp264
Rp265
sg9
g261
sg10
g11
sg12
g4
((lp266
S'fvc_percent_median'
p267
aS'fvc_percent_pct_diff'
p268
aS'fvc_percent_mean'
p269
aS'fvc_percent_std'
p270
aS'fvc_percent_mean_slope'
p271
atp272
Rp273
ss.