(dp0
S'family_ALS_hist'
p1
(dp2
S'funcs'
p3
c__builtin__
set
p4
((lp5
cvectorizing_funcs
ts_last_boolean
p6
atp7
Rp8
sS'feature_name'
p9
g1
sS'feature_type'
p10
S'ts'
p11
sS'derived_features'
p12
g4
((lp13
S'family_ALS_hist_last'
p14
atp15
Rp16
ssS'Hematocrit'
p17
(dp18
g3
g4
((lp19
cvectorizing_funcs
ts_pct_diff
p20
acvectorizing_funcs
ts_last_value
p21
acvectorizing_funcs
ts_mean_slope
p22
acvectorizing_funcs
ts_stats
p23
atp24
Rp25
sg9
g17
sg10
g11
sg12
g4
((lp26
S'Hematocrit_mean_slope'
p27
aS'Hematocrit_mean'
p28
aS'Hematocrit_last'
p29
aS'Hematocrit_pct_diff'
p30
atp31
Rp32
ssS'Urine Specific Gravity'
p33
(dp34
g3
g4
((lp35
g20
ag21
ag22
ag23
atp36
Rp37
sg9
g33
sg10
g11
sg12
g4
((lp38
S'Urine Specific Gravity_mean'
p39
aS'Urine Specific Gravity_pct_diff'
p40
aS'Urine Specific Gravity_last'
p41
aS'Urine Specific Gravity_mean_slope'
p42
atp43
Rp44
ssS'weight'
p45
(dp46
g3
g4
((lp47
g20
ag21
ag22
ag23
atp48
Rp49
sg9
g45
sg10
g11
sg12
g4
((lp50
S'weight_last'
p51
aS'weight_pct_diff'
p52
aS'weight_mean_slope'
p53
aS'weight_mean'
p54
atp55
Rp56
ssS'Sodium'
p57
(dp58
g3
g4
((lp59
g20
ag21
ag22
ag23
atp60
Rp61
sg9
g57
sg10
g11
sg12
g4
((lp62
S'Sodium_mean_slope'
p63
aS'Sodium_mean'
p64
aS'Sodium_pct_diff'
p65
aS'Sodium_last'
p66
atp67
Rp68
ssS'if_use_Riluzole'
p69
(dp70
g3
g4
((lp71
g6
atp72
Rp73
sg9
g69
sg10
g11
sg12
g4
((lp74
S'if_use_Riluzole_last'
p75
atp76
Rp77
ssS'Total Cholesterol'
p78
(dp79
g3
g4
((lp80
g20
ag21
ag22
ag23
atp81
Rp82
sg9
g78
sg10
g11
sg12
g4
((lp83
S'Total Cholesterol_mean'
p84
aS'Total Cholesterol_last'
p85
aS'Total Cholesterol_mean_slope'
p86
aS'Total Cholesterol_pct_diff'
p87
atp88
Rp89
ssS'pulse'
p90
(dp91
g3
g4
((lp92
g20
ag21
ag22
ag23
atp93
Rp94
sg9
g90
sg10
g11
sg12
g4
((lp95
S'pulse_last'
p96
aS'pulse_mean'
p97
aS'pulse_pct_diff'
p98
aS'pulse_mean_slope'
p99
atp100
Rp101
ssS'White Blood Cell (WBC)'
p102
(dp103
g3
g4
((lp104
g20
ag21
ag22
ag23
atp105
Rp106
sg9
g102
sg10
g11
sg12
g4
((lp107
S'White Blood Cell (WBC)_mean_slope'
p108
aS'White Blood Cell (WBC)_pct_diff'
p109
aS'White Blood Cell (WBC)_mean'
p110
aS'White Blood Cell (WBC)_last'
p111
atp112
Rp113
ssS'Lactate Dehydrogenase'
p114
(dp115
g3
g4
((lp116
g20
ag21
ag22
ag23
atp117
Rp118
sg9
g114
sg10
g11
sg12
g4
((lp119
S'Lactate Dehydrogenase_mean'
p120
aS'Lactate Dehydrogenase_last'
p121
aS'Lactate Dehydrogenase_mean_slope'
p122
aS'Lactate Dehydrogenase_pct_diff'
p123
atp124
Rp125
ssS'Monocytes'
p126
(dp127
g3
g4
((lp128
g20
ag21
ag22
ag23
atp129
Rp130
sg9
g126
sg10
g11
sg12
g4
((lp131
S'Monocytes_last'
p132
aS'Monocytes_mean'
p133
aS'Monocytes_pct_diff'
p134
aS'Monocytes_mean_slope'
p135
atp136
Rp137
ssS'Lymphocytes'
p138
(dp139
g3
g4
((lp140
g20
ag21
ag22
ag23
atp141
Rp142
sg9
g138
sg10
g11
sg12
g4
((lp143
S'Lymphocytes_last'
p144
aS'Lymphocytes_mean_slope'
p145
aS'Lymphocytes_mean'
p146
aS'Lymphocytes_pct_diff'
p147
atp148
Rp149
ssS'Albumin'
p150
(dp151
g3
g4
((lp152
g20
ag21
ag22
ag23
atp153
Rp154
sg9
g150
sg10
g11
sg12
g4
((lp155
S'Albumin_pct_diff'
p156
aS'Albumin_last'
p157
aS'Albumin_mean'
p158
aS'Albumin_mean_slope'
p159
atp160
Rp161
ssS'Chloride'
p162
(dp163
g3
g4
((lp164
g20
ag21
ag22
ag23
atp165
Rp166
sg9
g162
sg10
g11
sg12
g4
((lp167
S'Chloride_mean_slope'
p168
aS'Chloride_last'
p169
aS'Chloride_pct_diff'
p170
aS'Chloride_mean'
p171
atp172
Rp173
ssS'Bilirubin (Total)'
p174
(dp175
g3
g4
((lp176
g20
ag21
ag22
ag23
atp177
Rp178
sg9
g174
sg10
g11
sg12
g4
((lp179
S'Bilirubin (Total)_pct_diff'
p180
aS'Bilirubin (Total)_mean'
p181
aS'Bilirubin (Total)_last'
p182
aS'Bilirubin (Total)_mean_slope'
p183
atp184
Rp185
ssS'ALSFRS_Total'
p186
(dp187
g3
g4
((lp188
g20
ag21
ag22
ag23
atp189
Rp190
sg9
g186
sg10
g11
sg12
g4
((lp191
S'ALSFRS_Total_last'
p192
aS'ALSFRS_Total_mean_slope'
p193
aS'ALSFRS_Total_mean'
p194
aS'ALSFRS_Total_pct_diff'
p195
atp196
Rp197
ssS'Glucose'
p198
(dp199
g3
g4
((lp200
g20
ag21
ag22
ag23
atp201
Rp202
sg9
g198
sg10
g11
sg12
g4
((lp203
S'Glucose_mean'
p204
aS'Glucose_mean_slope'
p205
aS'Glucose_pct_diff'
p206
aS'Glucose_last'
p207
atp208
Rp209
ssS'Alkaline Phosphatase'
p210
(dp211
g3
g4
((lp212
g20
ag21
ag22
ag23
atp213
Rp214
sg9
g210
sg10
g11
sg12
g4
((lp215
S'Alkaline Phosphatase_mean'
p216
aS'Alkaline Phosphatase_pct_diff'
p217
aS'Alkaline Phosphatase_mean_slope'
p218
aS'Alkaline Phosphatase_last'
p219
atp220
Rp221
ssS'bp_systolic'
p222
(dp223
g3
g4
((lp224
g20
ag21
ag22
ag23
atp225
Rp226
sg9
g222
sg10
g11
sg12
g4
((lp227
S'bp_systolic_last'
p228
aS'bp_systolic_pct_diff'
p229
aS'bp_systolic_mean'
p230
aS'bp_systolic_mean_slope'
p231
atp232
Rp233
ssS'Bicarbonate'
p234
(dp235
g3
g4
((lp236
g20
ag21
ag22
ag23
atp237
Rp238
sg9
g234
sg10
g11
sg12
g4
((lp239
S'Bicarbonate_mean'
p240
aS'Bicarbonate_mean_slope'
p241
aS'Bicarbonate_pct_diff'
p242
aS'Bicarbonate_last'
p243
atp244
Rp245
ssS'Potassium'
p246
(dp247
g3
g4
((lp248
g20
ag21
ag22
ag23
atp249
Rp250
sg9
g246
sg10
g11
sg12
g4
((lp251
S'Potassium_pct_diff'
p252
aS'Potassium_mean'
p253
aS'Potassium_last'
p254
aS'Potassium_mean_slope'
p255
atp256
Rp257
ssS'Prothrombin Time (clotting)'
p258
(dp259
g3
g4
((lp260
g20
ag21
ag22
ag23
atp261
Rp262
sg9
g258
sg10
g11
sg12
g4
((lp263
S'Prothrombin Time (clotting)_pct_diff'
p264
aS'Prothrombin Time (clotting)_last'
p265
aS'Prothrombin Time (clotting)_mean'
p266
aS'Prothrombin Time (clotting)_mean_slope'
p267
atp268
Rp269
ssS'bp_diastolic'
p270
(dp271
g3
g4
((lp272
g20
ag21
ag22
ag23
atp273
Rp274
sg9
g270
sg10
g11
sg12
g4
((lp275
S'bp_diastolic_mean_slope'
p276
aS'bp_diastolic_pct_diff'
p277
aS'bp_diastolic_last'
p278
aS'bp_diastolic_mean'
p279
atp280
Rp281
ssS'Absolute Eosinophil Count'
p282
(dp283
g3
g4
((lp284
g20
ag21
ag22
ag23
atp285
Rp286
sg9
g282
sg10
g11
sg12
g4
((lp287
S'Absolute Eosinophil Count_pct_diff'
p288
aS'Absolute Eosinophil Count_mean'
p289
aS'Absolute Eosinophil Count_mean_slope'
p290
aS'Absolute Eosinophil Count_last'
p291
atp292
Rp293
ssS'Red Blood Cells (RBC)'
p294
(dp295
g3
g4
((lp296
g20
ag21
ag22
ag23
atp297
Rp298
sg9
g294
sg10
g11
sg12
g4
((lp299
S'Red Blood Cells (RBC)_pct_diff'
p300
aS'Red Blood Cells (RBC)_mean'
p301
aS'Red Blood Cells (RBC)_mean_slope'
p302
aS'Red Blood Cells (RBC)_last'
p303
atp304
Rp305
ssS'Blood Urea Nitrogen (BUN)'
p306
(dp307
g3
g4
((lp308
g20
ag21
ag22
ag23
atp309
Rp310
sg9
g306
sg10
g11
sg12
g4
((lp311
S'Blood Urea Nitrogen (BUN)_last'
p312
aS'Blood Urea Nitrogen (BUN)_mean'
p313
aS'Blood Urea Nitrogen (BUN)_pct_diff'
p314
aS'Blood Urea Nitrogen (BUN)_mean_slope'
p315
atp316
Rp317
ssS'Phosphorus'
p318
(dp319
g3
g4
((lp320
g20
ag21
ag22
ag23
atp321
Rp322
sg9
g318
sg10
g11
sg12
g4
((lp323
S'Phosphorus_mean_slope'
p324
aS'Phosphorus_mean'
p325
aS'Phosphorus_pct_diff'
p326
aS'Phosphorus_last'
p327
atp328
Rp329
ssS'CK'
p330
(dp331
g3
g4
((lp332
g20
ag21
ag22
ag23
atp333
Rp334
sg9
g330
sg10
g11
sg12
g4
((lp335
S'CK_mean_slope'
p336
aS'CK_pct_diff'
p337
aS'CK_mean'
p338
aS'CK_last'
p339
atp340
Rp341
ssS'Eosinophils'
p342
(dp343
g3
g4
((lp344
g20
ag21
ag22
ag23
atp345
Rp346
sg9
g342
sg10
g11
sg12
g4
((lp347
S'Eosinophils_mean'
p348
aS'Eosinophils_last'
p349
aS'Eosinophils_pct_diff'
p350
aS'Eosinophils_mean_slope'
p351
atp352
Rp353
ssS'Absolute Neutrophil Count'
p354
(dp355
g3
g4
((lp356
g20
ag21
ag22
ag23
atp357
Rp358
sg9
g354
sg10
g11
sg12
g4
((lp359
S'Absolute Neutrophil Count_mean'
p360
aS'Absolute Neutrophil Count_last'
p361
aS'Absolute Neutrophil Count_mean_slope'
p362
aS'Absolute Neutrophil Count_pct_diff'
p363
atp364
Rp365
ssS'Gender'
p366
(dp367
g3
g4
((lp368
cvectorizing_funcs
apply_scalar_feature_to_dummies
p369
atp370
Rp371
sg9
g366
sg10
S'dummy'
p372
sg12
cpandas.core.index
_new_Index
p373
(cpandas.core.index
Index
p374
(dp375
S'data'
p376
cnumpy.core.multiarray
_reconstruct
p377
(cnumpy
ndarray
p378
(I0
tp379
S'b'
p380
tp381
Rp382
(I1
(L2L
tp383
cnumpy
dtype
p384
(S'O8'
p385
I0
I1
tp386
Rp387
(I3
S'|'
p388
NNNI-1
I-1
I63
tp389
bI00
(lp390
S'F'
p391
aS'M'
p392
atp393
bsS'name'
p394
Nstp395
Rp396
ssS'Age'
p397
(dp398
g3
g4
((lp399
g21
atp400
Rp401
sg9
g397
sg10
g11
sg12
g4
((lp402
S'Age_last'
p403
atp404
Rp405
ssS'respiratory_rate'
p406
(dp407
g3
g4
((lp408
g20
ag21
ag22
ag23
atp409
Rp410
sg9
g406
sg10
g11
sg12
g4
((lp411
S'respiratory_rate_mean_slope'
p412
aS'respiratory_rate_pct_diff'
p413
aS'respiratory_rate_last'
p414
aS'respiratory_rate_mean'
p415
atp416
Rp417
ssS'HbA1c (Glycated Hemoglobin)'
p418
(dp419
g3
g4
((lp420
g20
ag21
ag22
ag23
atp421
Rp422
sg9
g418
sg10
g11
sg12
g4
((lp423
S'HbA1c (Glycated Hemoglobin)_last'
p424
aS'HbA1c (Glycated Hemoglobin)_pct_diff'
p425
aS'HbA1c (Glycated Hemoglobin)_mean'
p426
aS'HbA1c (Glycated Hemoglobin)_mean_slope'
p427
atp428
Rp429
ssS'Absolute Monocyte Count'
p430
(dp431
g3
g4
((lp432
g20
ag21
ag22
ag23
atp433
Rp434
sg9
g430
sg10
g11
sg12
g4
((lp435
S'Absolute Monocyte Count_mean'
p436
aS'Absolute Monocyte Count_mean_slope'
p437
aS'Absolute Monocyte Count_pct_diff'
p438
aS'Absolute Monocyte Count_last'
p439
atp440
Rp441
ssS'Calcium'
p442
(dp443
g3
g4
((lp444
g20
ag21
ag22
ag23
atp445
Rp446
sg9
g442
sg10
g11
sg12
g4
((lp447
S'Calcium_mean_slope'
p448
aS'Calcium_last'
p449
aS'Calcium_mean'
p450
aS'Calcium_pct_diff'
p451
atp452
Rp453
ssS'Urine Ph'
p454
(dp455
g3
g4
((lp456
g20
ag21
ag22
ag23
atp457
Rp458
sg9
g454
sg10
g11
sg12
g4
((lp459
S'Urine Ph_mean'
p460
aS'Urine Ph_pct_diff'
p461
aS'Urine Ph_mean_slope'
p462
aS'Urine Ph_last'
p463
atp464
Rp465
ssS'mouth'
p466
(dp467
g3
g4
((lp468
g20
ag21
ag22
ag23
atp469
Rp470
sg9
g466
sg10
g11
sg12
g4
((lp471
S'mouth_mean_slope'
p472
aS'mouth_mean'
p473
aS'mouth_last'
p474
aS'mouth_pct_diff'
p475
atp476
Rp477
ssS'Gamma-glutamyltransferase'
p478
(dp479
g3
g4
((lp480
g20
ag21
ag22
ag23
atp481
Rp482
sg9
g478
sg10
g11
sg12
g4
((lp483
S'Gamma-glutamyltransferase_last'
p484
aS'Gamma-glutamyltransferase_mean'
p485
aS'Gamma-glutamyltransferase_pct_diff'
p486
aS'Gamma-glutamyltransferase_mean_slope'
p487
atp488
Rp489
ssS'hands'
p490
(dp491
g3
g4
((lp492
g20
ag21
ag22
ag23
atp493
Rp494
sg9
g490
sg10
g11
sg12
g4
((lp495
S'hands_mean'
p496
aS'hands_last'
p497
aS'hands_mean_slope'
p498
aS'hands_pct_diff'
p499
atp500
Rp501
ssS'Basophils'
p502
(dp503
g3
g4
((lp504
g20
ag21
ag22
ag23
atp505
Rp506
sg9
g502
sg10
g11
sg12
g4
((lp507
S'Basophils_mean'
p508
aS'Basophils_last'
p509
aS'Basophils_pct_diff'
p510
aS'Basophils_mean_slope'
p511
atp512
Rp513
ssS'onset_delta'
p514
(dp515
g3
g4
((lp516
g21
atp517
Rp518
sg9
g514
sg10
g11
sg12
g4
((lp519
S'onset_delta_last'
p520
atp521
Rp522
ssS'Neutrophils'
p523
(dp524
g3
g4
((lp525
g20
ag21
ag22
ag23
atp526
Rp527
sg9
g523
sg10
g11
sg12
g4
((lp528
S'Neutrophils_mean'
p529
aS'Neutrophils_last'
p530
aS'Neutrophils_pct_diff'
p531
aS'Neutrophils_mean_slope'
p532
atp533
Rp534
ssS'Protein'
p535
(dp536
g3
g4
((lp537
g20
ag21
ag22
ag23
atp538
Rp539
sg9
g535
sg10
g11
sg12
g4
((lp540
S'Protein_mean'
p541
aS'Protein_last'
p542
aS'Protein_pct_diff'
p543
aS'Protein_mean_slope'
p544
atp545
Rp546
ssS'BMI'
p547
(dp548
g3
g4
((lp549
g21
atp550
Rp551
sg9
g547
sg10
g11
sg12
g4
((lp552
S'BMI_last'
p553
atp554
Rp555
ssS'temperature'
p556
(dp557
g3
g4
((lp558
g20
ag21
ag22
ag23
atp559
Rp560
sg9
g556
sg10
g11
sg12
g4
((lp561
S'temperature_pct_diff'
p562
aS'temperature_mean_slope'
p563
aS'temperature_last'
p564
aS'temperature_mean'
p565
atp566
Rp567
ssS'respiratory'
p568
(dp569
g3
g4
((lp570
g20
ag21
ag22
ag23
atp571
Rp572
sg9
g568
sg10
g11
sg12
g4
((lp573
S'respiratory_pct_diff'
p574
aS'respiratory_last'
p575
aS'respiratory_mean'
p576
aS'respiratory_mean_slope'
p577
atp578
Rp579
ssS'AST(SGOT)'
p580
(dp581
g3
g4
((lp582
g20
ag21
ag22
ag23
atp583
Rp584
sg9
g580
sg10
g11
sg12
g4
((lp585
S'AST(SGOT)_pct_diff'
p586
aS'AST(SGOT)_last'
p587
aS'AST(SGOT)_mean_slope'
p588
aS'AST(SGOT)_mean'
p589
atp590
Rp591
ssS'Hemoglobin'
p592
(dp593
g3
g4
((lp594
g20
ag21
ag22
ag23
atp595
Rp596
sg9
g592
sg10
g11
sg12
g4
((lp597
S'Hemoglobin_mean_slope'
p598
aS'Hemoglobin_pct_diff'
p599
aS'Hemoglobin_mean'
p600
aS'Hemoglobin_last'
p601
atp602
Rp603
ssS'Absolute Lymphocyte Count'
p604
(dp605
g3
g4
((lp606
g20
ag21
ag22
ag23
atp607
Rp608
sg9
g604
sg10
g11
sg12
g4
((lp609
S'Absolute Lymphocyte Count_mean_slope'
p610
aS'Absolute Lymphocyte Count_mean'
p611
aS'Absolute Lymphocyte Count_pct_diff'
p612
aS'Absolute Lymphocyte Count_last'
p613
atp614
Rp615
ssS'Platelets'
p616
(dp617
g3
g4
((lp618
g20
ag21
ag22
ag23
atp619
Rp620
sg9
g616
sg10
g11
sg12
g4
((lp621
S'Platelets_pct_diff'
p622
aS'Platelets_mean'
p623
aS'Platelets_mean_slope'
p624
aS'Platelets_last'
p625
atp626
Rp627
ssS'Uric Acid'
p628
(dp629
g3
g4
((lp630
g20
ag21
ag22
ag23
atp631
Rp632
sg9
g628
sg10
g11
sg12
g4
((lp633
S'Uric Acid_pct_diff'
p634
aS'Uric Acid_last'
p635
aS'Uric Acid_mean_slope'
p636
aS'Uric Acid_mean'
p637
atp638
Rp639
ssS'Race'
p640
(dp641
g3
g4
((lp642
g369
atp643
Rp644
sg9
g640
sg10
g372
sg12
g373
(g374
(dp645
g376
g377
(g378
(I0
tp646
g380
tp647
Rp648
(I1
(L6L
tp649
g387
I00
(lp650
S'Asian'
p651
aS'Black'
p652
aS'Hispanic'
p653
aS'Other'
p654
aS'Unknown'
p655
aS'White'
p656
atp657
bsg394
Nstp658
Rp659
ssS'fvc_percent'
p660
(dp661
g3
g4
((lp662
g20
ag21
ag22
ag23
atp663
Rp664
sg9
g660
sg10
g11
sg12
g4
((lp665
S'fvc_percent_last'
p666
aS'fvc_percent_pct_diff'
p667
aS'fvc_percent_mean'
p668
aS'fvc_percent_mean_slope'
p669
atp670
Rp671
ssS'Absolute Basophil Count'
p672
(dp673
g3
g4
((lp674
g20
ag21
ag22
ag23
atp675
Rp676
sg9
g672
sg10
g11
sg12
g4
((lp677
S'Absolute Basophil Count_mean_slope'
p678
aS'Absolute Basophil Count_last'
p679
aS'Absolute Basophil Count_mean'
p680
aS'Absolute Basophil Count_pct_diff'
p681
atp682
Rp683
ssS'Creatinine'
p684
(dp685
g3
g4
((lp686
g20
ag21
ag22
ag23
atp687
Rp688
sg9
g684
sg10
g11
sg12
g4
((lp689
S'Creatinine_mean_slope'
p690
aS'Creatinine_mean'
p691
aS'Creatinine_last'
p692
aS'Creatinine_pct_diff'
p693
atp694
Rp695
ssS'Triglycerides'
p696
(dp697
g3
g4
((lp698
g20
ag21
ag22
ag23
atp699
Rp700
sg9
g696
sg10
g11
sg12
g4
((lp701
S'Triglycerides_pct_diff'
p702
aS'Triglycerides_last'
p703
aS'Triglycerides_mean_slope'
p704
aS'Triglycerides_mean'
p705
atp706
Rp707
ssS'ALT(SGPT)'
p708
(dp709
g3
g4
((lp710
g20
ag21
ag22
ag23
atp711
Rp712
sg9
g708
sg10
g11
sg12
g4
((lp713
S'ALT(SGPT)_mean'
p714
aS'ALT(SGPT)_last'
p715
aS'ALT(SGPT)_mean_slope'
p716
aS'ALT(SGPT)_pct_diff'
p717
atp718
Rp719
ss.