(dp0
S'family_ALS_hist'
p1
(dp2
S'funcs'
p3
c__builtin__
set
p4
((lp5
cvectorizing_funcs
ts_last_boolean
p6
atp7
Rp8
sS'feature_name'
p9
g1
sS'feature_type'
p10
S'ts'
p11
sS'derived_features'
p12
g4
((lp13
S'family_ALS_hist_last'
p14
atp15
Rp16
ssS'Hematocrit'
p17
(dp18
g3
g4
((lp19
cvectorizing_funcs
ts_stats
p20
acvectorizing_funcs
ts_pct_diff
p21
acvectorizing_funcs
ts_last_value
p22
acvectorizing_funcs
ts_mean_slope
p23
atp24
Rp25
sg9
g17
sg10
g11
sg12
g4
((lp26
S'Hematocrit_mean_slope'
p27
aS'Hematocrit_mean'
p28
aS'Hematocrit_last'
p29
aS'Hematocrit_pct_diff'
p30
atp31
Rp32
ssS'weight'
p33
(dp34
g3
g4
((lp35
g20
ag21
ag22
ag23
atp36
Rp37
sg9
g33
sg10
g11
sg12
g4
((lp38
S'weight_last'
p39
aS'weight_pct_diff'
p40
aS'weight_mean_slope'
p41
aS'weight_mean'
p42
atp43
Rp44
ssS'Sodium'
p45
(dp46
g3
g4
((lp47
g20
ag21
ag22
ag23
atp48
Rp49
sg9
g45
sg10
g11
sg12
g4
((lp50
S'Sodium_mean_slope'
p51
aS'Sodium_mean'
p52
aS'Sodium_pct_diff'
p53
aS'Sodium_last'
p54
atp55
Rp56
ssS'if_use_Riluzole'
p57
(dp58
g3
g4
((lp59
g6
atp60
Rp61
sg9
g57
sg10
g11
sg12
g4
((lp62
S'if_use_Riluzole_last'
p63
atp64
Rp65
ssS'Total Cholesterol'
p66
(dp67
g3
g4
((lp68
g20
ag21
ag22
ag23
atp69
Rp70
sg9
g66
sg10
g11
sg12
g4
((lp71
S'Total Cholesterol_mean'
p72
aS'Total Cholesterol_last'
p73
aS'Total Cholesterol_mean_slope'
p74
aS'Total Cholesterol_pct_diff'
p75
atp76
Rp77
ssS'pulse'
p78
(dp79
g3
g4
((lp80
g20
ag21
ag22
ag23
atp81
Rp82
sg9
g78
sg10
g11
sg12
g4
((lp83
S'pulse_last'
p84
aS'pulse_mean_slope'
p85
aS'pulse_pct_diff'
p86
aS'pulse_mean'
p87
atp88
Rp89
ssS'White Blood Cell (WBC)'
p90
(dp91
g3
g4
((lp92
g20
ag21
ag22
ag23
atp93
Rp94
sg9
g90
sg10
g11
sg12
g4
((lp95
S'White Blood Cell (WBC)_mean_slope'
p96
aS'White Blood Cell (WBC)_pct_diff'
p97
aS'White Blood Cell (WBC)_mean'
p98
aS'White Blood Cell (WBC)_last'
p99
atp100
Rp101
ssS'Albumin'
p102
(dp103
g3
g4
((lp104
g20
ag21
ag22
ag23
atp105
Rp106
sg9
g102
sg10
g11
sg12
g4
((lp107
S'Albumin_pct_diff'
p108
aS'Albumin_last'
p109
aS'Albumin_mean'
p110
aS'Albumin_mean_slope'
p111
atp112
Rp113
ssS'Chloride'
p114
(dp115
g3
g4
((lp116
g20
ag21
ag22
ag23
atp117
Rp118
sg9
g114
sg10
g11
sg12
g4
((lp119
S'Chloride_mean_slope'
p120
aS'Chloride_last'
p121
aS'Chloride_pct_diff'
p122
aS'Chloride_mean'
p123
atp124
Rp125
ssS'ALSFRS_Total'
p126
(dp127
g3
g4
((lp128
g20
ag21
ag22
ag23
atp129
Rp130
sg9
g126
sg10
g11
sg12
g4
((lp131
S'ALSFRS_Total_last'
p132
aS'ALSFRS_Total_mean_slope'
p133
aS'ALSFRS_Total_mean'
p134
aS'ALSFRS_Total_pct_diff'
p135
atp136
Rp137
ssS'Glucose'
p138
(dp139
g3
g4
((lp140
g20
ag21
ag22
ag23
atp141
Rp142
sg9
g138
sg10
g11
sg12
g4
((lp143
S'Glucose_mean'
p144
aS'Glucose_mean_slope'
p145
aS'Glucose_pct_diff'
p146
aS'Glucose_last'
p147
atp148
Rp149
ssS'Alkaline Phosphatase'
p150
(dp151
g3
g4
((lp152
g20
ag21
ag22
ag23
atp153
Rp154
sg9
g150
sg10
g11
sg12
g4
((lp155
S'Alkaline Phosphatase_mean'
p156
aS'Alkaline Phosphatase_pct_diff'
p157
aS'Alkaline Phosphatase_mean_slope'
p158
aS'Alkaline Phosphatase_last'
p159
atp160
Rp161
ssS'bp_systolic'
p162
(dp163
g3
g4
((lp164
g20
ag21
ag22
ag23
atp165
Rp166
sg9
g162
sg10
g11
sg12
g4
((lp167
S'bp_systolic_last'
p168
aS'bp_systolic_pct_diff'
p169
aS'bp_systolic_mean'
p170
aS'bp_systolic_mean_slope'
p171
atp172
Rp173
ssS'Bicarbonate'
p174
(dp175
g3
g4
((lp176
g20
ag21
ag22
ag23
atp177
Rp178
sg9
g174
sg10
g11
sg12
g4
((lp179
S'Bicarbonate_mean'
p180
aS'Bicarbonate_mean_slope'
p181
aS'Bicarbonate_pct_diff'
p182
aS'Bicarbonate_last'
p183
atp184
Rp185
ssS'Potassium'
p186
(dp187
g3
g4
((lp188
g20
ag21
ag22
ag23
atp189
Rp190
sg9
g186
sg10
g11
sg12
g4
((lp191
S'Potassium_pct_diff'
p192
aS'Potassium_mean'
p193
aS'Potassium_last'
p194
aS'Potassium_mean_slope'
p195
atp196
Rp197
ssS'BMI'
p198
(dp199
g3
g4
((lp200
g22
atp201
Rp202
sg9
g198
sg10
g11
sg12
g4
((lp203
S'BMI_last'
p204
atp205
Rp206
ssS'bp_diastolic'
p207
(dp208
g3
g4
((lp209
g20
ag21
ag22
ag23
atp210
Rp211
sg9
g207
sg10
g11
sg12
g4
((lp212
S'bp_diastolic_mean_slope'
p213
aS'bp_diastolic_pct_diff'
p214
aS'bp_diastolic_last'
p215
aS'bp_diastolic_mean'
p216
atp217
Rp218
ssS'Red Blood Cells (RBC)'
p219
(dp220
g3
g4
((lp221
g20
ag21
ag22
ag23
atp222
Rp223
sg9
g219
sg10
g11
sg12
g4
((lp224
S'Red Blood Cells (RBC)_pct_diff'
p225
aS'Red Blood Cells (RBC)_mean'
p226
aS'Red Blood Cells (RBC)_mean_slope'
p227
aS'Red Blood Cells (RBC)_last'
p228
atp229
Rp230
ssS'Blood Urea Nitrogen (BUN)'
p231
(dp232
g3
g4
((lp233
g20
ag21
ag22
ag23
atp234
Rp235
sg9
g231
sg10
g11
sg12
g4
((lp236
S'Blood Urea Nitrogen (BUN)_last'
p237
aS'Blood Urea Nitrogen (BUN)_mean_slope'
p238
aS'Blood Urea Nitrogen (BUN)_pct_diff'
p239
aS'Blood Urea Nitrogen (BUN)_mean'
p240
atp241
Rp242
ssS'Phosphorus'
p243
(dp244
g3
g4
((lp245
g20
ag21
ag22
ag23
atp246
Rp247
sg9
g243
sg10
g11
sg12
g4
((lp248
S'Phosphorus_mean_slope'
p249
aS'Phosphorus_mean'
p250
aS'Phosphorus_pct_diff'
p251
aS'Phosphorus_last'
p252
atp253
Rp254
ssS'CK'
p255
(dp256
g3
g4
((lp257
g20
ag21
ag22
ag23
atp258
Rp259
sg9
g255
sg10
g11
sg12
g4
((lp260
S'CK_mean_slope'
p261
aS'CK_pct_diff'
p262
aS'CK_mean'
p263
aS'CK_last'
p264
atp265
Rp266
ssS'Gender'
p267
(dp268
g3
g4
((lp269
cvectorizing_funcs
apply_scalar_feature_to_dummies
p270
atp271
Rp272
sg9
g267
sg10
S'dummy'
p273
sg12
cpandas.core.index
_new_Index
p274
(cpandas.core.index
Index
p275
(dp276
S'data'
p277
cnumpy.core.multiarray
_reconstruct
p278
(cnumpy
ndarray
p279
(I0
tp280
S'b'
p281
tp282
Rp283
(I1
(L2L
tp284
cnumpy
dtype
p285
(S'O8'
p286
I0
I1
tp287
Rp288
(I3
S'|'
p289
NNNI-1
I-1
I63
tp290
bI00
(lp291
S'F'
p292
aS'M'
p293
atp294
bsS'name'
p295
Nstp296
Rp297
ssS'Age'
p298
(dp299
g3
g4
((lp300
g22
atp301
Rp302
sg9
g298
sg10
g11
sg12
g4
((lp303
S'Age_last'
p304
atp305
Rp306
ssS'respiratory_rate'
p307
(dp308
g3
g4
((lp309
g20
ag21
ag22
ag23
atp310
Rp311
sg9
g307
sg10
g11
sg12
g4
((lp312
S'respiratory_rate_mean_slope'
p313
aS'respiratory_rate_pct_diff'
p314
aS'respiratory_rate_last'
p315
aS'respiratory_rate_mean'
p316
atp317
Rp318
ssS'Calcium'
p319
(dp320
g3
g4
((lp321
g20
ag21
ag22
ag23
atp322
Rp323
sg9
g319
sg10
g11
sg12
g4
((lp324
S'Calcium_mean_slope'
p325
aS'Calcium_last'
p326
aS'Calcium_mean'
p327
aS'Calcium_pct_diff'
p328
atp329
Rp330
ssS'Urine Ph'
p331
(dp332
g3
g4
((lp333
g20
ag21
ag22
ag23
atp334
Rp335
sg9
g331
sg10
g11
sg12
g4
((lp336
S'Urine Ph_mean'
p337
aS'Urine Ph_pct_diff'
p338
aS'Urine Ph_mean_slope'
p339
aS'Urine Ph_last'
p340
atp341
Rp342
ssS'mouth'
p343
(dp344
g3
g4
((lp345
g20
ag21
ag22
ag23
atp346
Rp347
sg9
g343
sg10
g11
sg12
g4
((lp348
S'mouth_mean_slope'
p349
aS'mouth_mean'
p350
aS'mouth_last'
p351
aS'mouth_pct_diff'
p352
atp353
Rp354
ssS'Gamma-glutamyltransferase'
p355
(dp356
g3
g4
((lp357
g20
ag21
ag22
ag23
atp358
Rp359
sg9
g355
sg10
g11
sg12
g4
((lp360
S'Gamma-glutamyltransferase_last'
p361
aS'Gamma-glutamyltransferase_mean_slope'
p362
aS'Gamma-glutamyltransferase_pct_diff'
p363
aS'Gamma-glutamyltransferase_mean'
p364
atp365
Rp366
ssS'hands'
p367
(dp368
g3
g4
((lp369
g20
ag21
ag22
ag23
atp370
Rp371
sg9
g367
sg10
g11
sg12
g4
((lp372
S'hands_mean'
p373
aS'hands_last'
p374
aS'hands_mean_slope'
p375
aS'hands_pct_diff'
p376
atp377
Rp378
ssS'onset_delta'
p379
(dp380
g3
g4
((lp381
g22
atp382
Rp383
sg9
g379
sg10
g11
sg12
g4
((lp384
S'onset_delta_last'
p385
atp386
Rp387
ssS'Bilirubin (Total)'
p388
(dp389
g3
g4
((lp390
g20
ag21
ag22
ag23
atp391
Rp392
sg9
g388
sg10
g11
sg12
g4
((lp393
S'Bilirubin (Total)_pct_diff'
p394
aS'Bilirubin (Total)_mean'
p395
aS'Bilirubin (Total)_last'
p396
aS'Bilirubin (Total)_mean_slope'
p397
atp398
Rp399
ssS'Protein'
p400
(dp401
g3
g4
((lp402
g20
ag21
ag22
ag23
atp403
Rp404
sg9
g400
sg10
g11
sg12
g4
((lp405
S'Protein_mean_slope'
p406
aS'Protein_last'
p407
aS'Protein_pct_diff'
p408
aS'Protein_mean'
p409
atp410
Rp411
ssS'temperature'
p412
(dp413
g3
g4
((lp414
g20
ag21
ag22
ag23
atp415
Rp416
sg9
g412
sg10
g11
sg12
g4
((lp417
S'temperature_pct_diff'
p418
aS'temperature_mean_slope'
p419
aS'temperature_last'
p420
aS'temperature_mean'
p421
atp422
Rp423
ssS'respiratory'
p424
(dp425
g3
g4
((lp426
g20
ag21
ag22
ag23
atp427
Rp428
sg9
g424
sg10
g11
sg12
g4
((lp429
S'respiratory_pct_diff'
p430
aS'respiratory_last'
p431
aS'respiratory_mean'
p432
aS'respiratory_mean_slope'
p433
atp434
Rp435
ssS'AST(SGOT)'
p436
(dp437
g3
g4
((lp438
g20
ag21
ag22
ag23
atp439
Rp440
sg9
g436
sg10
g11
sg12
g4
((lp441
S'AST(SGOT)_pct_diff'
p442
aS'AST(SGOT)_last'
p443
aS'AST(SGOT)_mean_slope'
p444
aS'AST(SGOT)_mean'
p445
atp446
Rp447
ssS'Hemoglobin'
p448
(dp449
g3
g4
((lp450
g20
ag21
ag22
ag23
atp451
Rp452
sg9
g448
sg10
g11
sg12
g4
((lp453
S'Hemoglobin_mean_slope'
p454
aS'Hemoglobin_pct_diff'
p455
aS'Hemoglobin_mean'
p456
aS'Hemoglobin_last'
p457
atp458
Rp459
ssS'Platelets'
p460
(dp461
g3
g4
((lp462
g20
ag21
ag22
ag23
atp463
Rp464
sg9
g460
sg10
g11
sg12
g4
((lp465
S'Platelets_pct_diff'
p466
aS'Platelets_mean'
p467
aS'Platelets_mean_slope'
p468
aS'Platelets_last'
p469
atp470
Rp471
ssS'Race'
p472
(dp473
g3
g4
((lp474
g270
atp475
Rp476
sg9
g472
sg10
g273
sg12
g274
(g275
(dp477
g277
g278
(g279
(I0
tp478
g281
tp479
Rp480
(I1
(L6L
tp481
g288
I00
(lp482
S'Asian'
p483
aS'Black'
p484
aS'Hispanic'
p485
aS'Other'
p486
aS'Unknown'
p487
aS'White'
p488
atp489
bsg295
Nstp490
Rp491
ssS'fvc_percent'
p492
(dp493
g3
g4
((lp494
g20
ag21
ag22
ag23
atp495
Rp496
sg9
g492
sg10
g11
sg12
g4
((lp497
S'fvc_percent_last'
p498
aS'fvc_percent_pct_diff'
p499
aS'fvc_percent_mean'
p500
aS'fvc_percent_mean_slope'
p501
atp502
Rp503
ssS'Absolute Basophil Count'
p504
(dp505
g3
g4
((lp506
g20
ag21
ag22
ag23
atp507
Rp508
sg9
g504
sg10
g11
sg12
g4
((lp509
S'Absolute Basophil Count_mean_slope'
p510
aS'Absolute Basophil Count_last'
p511
aS'Absolute Basophil Count_mean'
p512
aS'Absolute Basophil Count_pct_diff'
p513
atp514
Rp515
ssS'Creatinine'
p516
(dp517
g3
g4
((lp518
g20
ag21
ag22
ag23
atp519
Rp520
sg9
g516
sg10
g11
sg12
g4
((lp521
S'Creatinine_mean_slope'
p522
aS'Creatinine_mean'
p523
aS'Creatinine_last'
p524
aS'Creatinine_pct_diff'
p525
atp526
Rp527
ssS'ALT(SGPT)'
p528
(dp529
g3
g4
((lp530
g20
ag21
ag22
ag23
atp531
Rp532
sg9
g528
sg10
g11
sg12
g4
((lp533
S'ALT(SGPT)_mean'
p534
aS'ALT(SGPT)_last'
p535
aS'ALT(SGPT)_mean_slope'
p536
aS'ALT(SGPT)_pct_diff'
p537
atp538
Rp539
ss.