(dp0
S'family_ALS_hist'
p1
(dp2
S'funcs'
p3
c__builtin__
set
p4
((lp5
cvectorizing_funcs
ts_last_boolean
p6
atp7
Rp8
sS'feature_name'
p9
g1
sS'feature_type'
p10
S'ts'
p11
sS'derived_features'
p12
g4
((lp13
S'family_ALS_hist_last'
p14
atp15
Rp16
ssS'onset_site'
p17
(dp18
g3
g4
((lp19
cvectorizing_funcs
apply_scalar_feature_to_dummies
p20
atp21
Rp22
sg9
g17
sg10
S'dummy'
p23
sg12
cpandas.core.index
_new_Index
p24
(cpandas.core.index
Index
p25
(dp26
S'data'
p27
cnumpy.core.multiarray
_reconstruct
p28
(cnumpy
ndarray
p29
(I0
tp30
S'b'
p31
tp32
Rp33
(I1
(L3L
tp34
cnumpy
dtype
p35
(S'O8'
p36
I0
I1
tp37
Rp38
(I3
S'|'
p39
NNNI-1
I-1
I63
tp40
bI00
(lp41
S'Bulbar'
p42
aS'Limb'
p43
aS'Limb and Bulbar'
p44
atp45
bsS'name'
p46
Nstp47
Rp48
ssS'weight'
p49
(dp50
g3
g4
((lp51
cvectorizing_funcs
ts_last_value
p52
acvectorizing_funcs
ts_mean_slope
p53
acvectorizing_funcs
ts_stats
p54
acvectorizing_funcs
ts_pct_diff
p55
atp56
Rp57
sg9
g49
sg10
g11
sg12
g4
((lp58
S'weight_last'
p59
aS'weight_pct_diff'
p60
aS'weight_mean_slope'
p61
aS'weight_mean'
p62
atp63
Rp64
ssS'Sodium'
p65
(dp66
g3
g4
((lp67
g52
ag53
ag54
ag55
atp68
Rp69
sg9
g65
sg10
g11
sg12
g4
((lp70
S'Sodium_mean_slope'
p71
aS'Sodium_mean'
p72
aS'Sodium_pct_diff'
p73
aS'Sodium_last'
p74
atp75
Rp76
ssS'if_use_Riluzole'
p77
(dp78
g3
g4
((lp79
g6
atp80
Rp81
sg9
g77
sg10
g11
sg12
g4
((lp82
S'if_use_Riluzole_last'
p83
atp84
Rp85
ssS'Total Cholesterol'
p86
(dp87
g3
g4
((lp88
g52
ag53
ag54
ag55
atp89
Rp90
sg9
g86
sg10
g11
sg12
g4
((lp91
S'Total Cholesterol_mean'
p92
aS'Total Cholesterol_last'
p93
aS'Total Cholesterol_pct_diff'
p94
aS'Total Cholesterol_mean_slope'
p95
atp96
Rp97
ssS'pulse'
p98
(dp99
g3
g4
((lp100
g52
ag53
ag54
ag55
atp101
Rp102
sg9
g98
sg10
g11
sg12
g4
((lp103
S'pulse_last'
p104
aS'pulse_mean_slope'
p105
aS'pulse_pct_diff'
p106
aS'pulse_mean'
p107
atp108
Rp109
ssS'White Blood Cell (WBC)'
p110
(dp111
g3
g4
((lp112
g52
ag53
ag54
ag55
atp113
Rp114
sg9
g110
sg10
g11
sg12
g4
((lp115
S'White Blood Cell (WBC)_pct_diff'
p116
aS'White Blood Cell (WBC)_mean_slope'
p117
aS'White Blood Cell (WBC)_mean'
p118
aS'White Blood Cell (WBC)_last'
p119
atp120
Rp121
ssS'Albumin'
p122
(dp123
g3
g4
((lp124
g52
ag53
ag54
ag55
atp125
Rp126
sg9
g122
sg10
g11
sg12
g4
((lp127
S'Albumin_mean_slope'
p128
aS'Albumin_last'
p129
aS'Albumin_mean'
p130
aS'Albumin_pct_diff'
p131
atp132
Rp133
ssS'Chloride'
p134
(dp135
g3
g4
((lp136
g52
ag53
ag54
ag55
atp137
Rp138
sg9
g134
sg10
g11
sg12
g4
((lp139
S'Chloride_last'
p140
aS'Chloride_mean_slope'
p141
aS'Chloride_pct_diff'
p142
aS'Chloride_mean'
p143
atp144
Rp145
ssS'ALSFRS_Total'
p146
(dp147
g3
g4
((lp148
g52
ag53
ag54
ag55
atp149
Rp150
sg9
g146
sg10
g11
sg12
g4
((lp151
S'ALSFRS_Total_last'
p152
aS'ALSFRS_Total_mean_slope'
p153
aS'ALSFRS_Total_mean'
p154
aS'ALSFRS_Total_pct_diff'
p155
atp156
Rp157
ssS'Glucose'
p158
(dp159
g3
g4
((lp160
g52
ag53
ag54
ag55
atp161
Rp162
sg9
g158
sg10
g11
sg12
g4
((lp163
S'Glucose_mean'
p164
aS'Glucose_pct_diff'
p165
aS'Glucose_mean_slope'
p166
aS'Glucose_last'
p167
atp168
Rp169
ssS'Alkaline Phosphatase'
p170
(dp171
g3
g4
((lp172
g52
ag53
ag54
ag55
atp173
Rp174
sg9
g170
sg10
g11
sg12
g4
((lp175
S'Alkaline Phosphatase_mean'
p176
aS'Alkaline Phosphatase_pct_diff'
p177
aS'Alkaline Phosphatase_mean_slope'
p178
aS'Alkaline Phosphatase_last'
p179
atp180
Rp181
ssS'bp_systolic'
p182
(dp183
g3
g4
((lp184
g52
ag53
ag54
ag55
atp185
Rp186
sg9
g182
sg10
g11
sg12
g4
((lp187
S'bp_systolic_last'
p188
aS'bp_systolic_mean_slope'
p189
aS'bp_systolic_mean'
p190
aS'bp_systolic_pct_diff'
p191
atp192
Rp193
ssS'Potassium'
p194
(dp195
g3
g4
((lp196
g52
ag53
ag54
ag55
atp197
Rp198
sg9
g194
sg10
g11
sg12
g4
((lp199
S'Potassium_mean_slope'
p200
aS'Potassium_mean'
p201
aS'Potassium_last'
p202
aS'Potassium_pct_diff'
p203
atp204
Rp205
ssS'BMI'
p206
(dp207
g3
g4
((lp208
g52
atp209
Rp210
sg9
g206
sg10
g11
sg12
g4
((lp211
S'BMI_last'
p212
atp213
Rp214
ssS'bp_diastolic'
p215
(dp216
g3
g4
((lp217
g52
ag53
ag54
ag55
atp218
Rp219
sg9
g215
sg10
g11
sg12
g4
((lp220
S'bp_diastolic_pct_diff'
p221
aS'bp_diastolic_mean_slope'
p222
aS'bp_diastolic_last'
p223
aS'bp_diastolic_mean'
p224
atp225
Rp226
ssS'fvc_percent'
p227
(dp228
g3
g4
((lp229
g52
ag53
ag54
ag55
atp230
Rp231
sg9
g227
sg10
g11
sg12
g4
((lp232
S'fvc_percent_last'
p233
aS'fvc_percent_mean_slope'
p234
aS'fvc_percent_mean'
p235
aS'fvc_percent_pct_diff'
p236
atp237
Rp238
ssS'Phosphorus'
p239
(dp240
g3
g4
((lp241
g52
ag53
ag54
ag55
atp242
Rp243
sg9
g239
sg10
g11
sg12
g4
((lp244
S'Phosphorus_mean_slope'
p245
aS'Phosphorus_mean'
p246
aS'Phosphorus_pct_diff'
p247
aS'Phosphorus_last'
p248
atp249
Rp250
ssS'CK'
p251
(dp252
g3
g4
((lp253
g52
ag53
ag54
ag55
atp254
Rp255
sg9
g251
sg10
g11
sg12
g4
((lp256
S'CK_mean_slope'
p257
aS'CK_mean'
p258
aS'CK_last'
p259
aS'CK_pct_diff'
p260
atp261
Rp262
ssS'Gender'
p263
(dp264
g3
g4
((lp265
g20
atp266
Rp267
sg9
g263
sg10
g23
sg12
g24
(g25
(dp268
g27
g28
(g29
(I0
tp269
g31
tp270
Rp271
(I1
(L2L
tp272
g38
I00
(lp273
S'F'
p274
aS'M'
p275
atp276
bsg46
Nstp277
Rp278
ssS'Age'
p279
(dp280
g3
g4
((lp281
g52
atp282
Rp283
sg9
g279
sg10
g11
sg12
g4
((lp284
S'Age_last'
p285
atp286
Rp287
ssS'respiratory_rate'
p288
(dp289
g3
g4
((lp290
g52
ag53
ag54
ag55
atp291
Rp292
sg9
g288
sg10
g11
sg12
g4
((lp293
S'respiratory_rate_pct_diff'
p294
aS'respiratory_rate_mean_slope'
p295
aS'respiratory_rate_last'
p296
aS'respiratory_rate_mean'
p297
atp298
Rp299
ssS'Calcium'
p300
(dp301
g3
g4
((lp302
g52
ag53
ag54
ag55
atp303
Rp304
sg9
g300
sg10
g11
sg12
g4
((lp305
S'Calcium_mean_slope'
p306
aS'Calcium_last'
p307
aS'Calcium_mean'
p308
aS'Calcium_pct_diff'
p309
atp310
Rp311
ssS'Race'
p312
(dp313
g3
g4
((lp314
g20
atp315
Rp316
sg9
g312
sg10
g23
sg12
g24
(g25
(dp317
g27
g28
(g29
(I0
tp318
g31
tp319
Rp320
(I1
(L6L
tp321
g38
I00
(lp322
S'Asian'
p323
aS'Black'
p324
aS'Hispanic'
p325
aS'Other'
p326
aS'Unknown'
p327
aS'White'
p328
atp329
bsg46
Nstp330
Rp331
ssS'mouth'
p332
(dp333
g3
g4
((lp334
g52
ag53
ag54
ag55
atp335
Rp336
sg9
g332
sg10
g11
sg12
g4
((lp337
S'mouth_mean_slope'
p338
aS'mouth_mean'
p339
aS'mouth_last'
p340
aS'mouth_pct_diff'
p341
atp342
Rp343
ssS'Gamma-glutamyltransferase'
p344
(dp345
g3
g4
((lp346
g52
ag53
ag54
ag55
atp347
Rp348
sg9
g344
sg10
g11
sg12
g4
((lp349
S'Gamma-glutamyltransferase_last'
p350
aS'Gamma-glutamyltransferase_pct_diff'
p351
aS'Gamma-glutamyltransferase_mean_slope'
p352
aS'Gamma-glutamyltransferase_mean'
p353
atp354
Rp355
ssS'hands'
p356
(dp357
g3
g4
((lp358
g52
ag53
ag54
ag55
atp359
Rp360
sg9
g356
sg10
g11
sg12
g4
((lp361
S'hands_mean'
p362
aS'hands_last'
p363
aS'hands_pct_diff'
p364
aS'hands_mean_slope'
p365
atp366
Rp367
ssS'onset_delta'
p368
(dp369
g3
g4
((lp370
g52
atp371
Rp372
sg9
g368
sg10
g11
sg12
g4
((lp373
S'onset_delta_last'
p374
atp375
Rp376
ssS'Bilirubin (Total)'
p377
(dp378
g3
g4
((lp379
g52
ag53
ag54
ag55
atp380
Rp381
sg9
g377
sg10
g11
sg12
g4
((lp382
S'Bilirubin (Total)_mean_slope'
p383
aS'Bilirubin (Total)_mean'
p384
aS'Bilirubin (Total)_last'
p385
aS'Bilirubin (Total)_pct_diff'
p386
atp387
Rp388
ssS'Protein'
p389
(dp390
g3
g4
((lp391
g52
ag53
ag54
ag55
atp392
Rp393
sg9
g389
sg10
g11
sg12
g4
((lp394
S'Protein_last'
p395
aS'Protein_mean_slope'
p396
aS'Protein_pct_diff'
p397
aS'Protein_mean'
p398
atp399
Rp400
ssS'temperature'
p401
(dp402
g3
g4
((lp403
g52
ag53
ag54
ag55
atp404
Rp405
sg9
g401
sg10
g11
sg12
g4
((lp406
S'temperature_pct_diff'
p407
aS'temperature_mean_slope'
p408
aS'temperature_last'
p409
aS'temperature_mean'
p410
atp411
Rp412
ssS'respiratory'
p413
(dp414
g3
g4
((lp415
g52
ag53
ag54
ag55
atp416
Rp417
sg9
g413
sg10
g11
sg12
g4
((lp418
S'respiratory_mean_slope'
p419
aS'respiratory_last'
p420
aS'respiratory_mean'
p421
aS'respiratory_pct_diff'
p422
atp423
Rp424
ssS'AST(SGOT)'
p425
(dp426
g3
g4
((lp427
g52
ag53
ag54
ag55
atp428
Rp429
sg9
g425
sg10
g11
sg12
g4
((lp430
S'AST(SGOT)_pct_diff'
p431
aS'AST(SGOT)_last'
p432
aS'AST(SGOT)_mean_slope'
p433
aS'AST(SGOT)_mean'
p434
atp435
Rp436
ssS'Hemoglobin'
p437
(dp438
g3
g4
((lp439
g52
ag53
ag54
ag55
atp440
Rp441
sg9
g437
sg10
g11
sg12
g4
((lp442
S'Hemoglobin_mean_slope'
p443
aS'Hemoglobin_pct_diff'
p444
aS'Hemoglobin_mean'
p445
aS'Hemoglobin_last'
p446
atp447
Rp448
ssS'Platelets'
p449
(dp450
g3
g4
((lp451
g52
ag53
ag54
ag55
atp452
Rp453
sg9
g449
sg10
g11
sg12
g4
((lp454
S'Platelets_mean_slope'
p455
aS'Platelets_mean'
p456
aS'Platelets_pct_diff'
p457
aS'Platelets_last'
p458
atp459
Rp460
ssS'Blood Urea Nitrogen (BUN)'
p461
(dp462
g3
g4
((lp463
g52
ag53
ag54
ag55
atp464
Rp465
sg9
g461
sg10
g11
sg12
g4
((lp466
S'Blood Urea Nitrogen (BUN)_last'
p467
aS'Blood Urea Nitrogen (BUN)_pct_diff'
p468
aS'Blood Urea Nitrogen (BUN)_mean_slope'
p469
aS'Blood Urea Nitrogen (BUN)_mean'
p470
atp471
Rp472
ssS'Creatinine'
p473
(dp474
g3
g4
((lp475
g52
ag53
ag54
ag55
atp476
Rp477
sg9
g473
sg10
g11
sg12
g4
((lp478
S'Creatinine_mean_slope'
p479
aS'Creatinine_mean'
p480
aS'Creatinine_last'
p481
aS'Creatinine_pct_diff'
p482
atp483
Rp484
ssS'ALT(SGPT)'
p485
(dp486
g3
g4
((lp487
g52
ag53
ag54
ag55
atp488
Rp489
sg9
g485
sg10
g11
sg12
g4
((lp490
S'ALT(SGPT)_mean'
p491
aS'ALT(SGPT)_last'
p492
aS'ALT(SGPT)_pct_diff'
p493
aS'ALT(SGPT)_mean_slope'
p494
atp495
Rp496
ss.