(dp0
cnumpy.core.multiarray
scalar
p1
(cnumpy
dtype
p2
(S'i8'
p3
I0
I1
tp4
Rp5
(I3
S'<'
p6
NNNI-1
I-1
I0
tp7
bS'\x00\x00\x00\x00\x00\x00\x00\x00'
p8
tp9
Rp10
(lp11
S'ALT(SGPT)'
p12
aS'Age'
p13
aS'Gender'
p14
aS'Neutrophils'
p15
aS'Protein'
p16
aS'Race'
p17
asg1
(g5
S'\x01\x00\x00\x00\x00\x00\x00\x00'
p18
tp19
Rp20
(lp21
S'Absolute Band Neutrophil Count'
p22
aS'Absolute Monocyte Count'
p23
aS'Absolute Neutrophil Count'
p24
ag13
aS'Albumin'
p25
aS'Bilirubin (Total)'
p26
asg1
(g5
S'\x02\x00\x00\x00\x00\x00\x00\x00'
p27
tp28
Rp29
(lp30
S'BMI'
p31
ag14
ag15
aS'Potassium'
p32
aS'if_use_Riluzole'
p33
aS'respiratory_rate'
p34
as.