(dp0
cnumpy.core.multiarray
scalar
p1
(cnumpy
dtype
p2
(S'i8'
p3
I0
I1
tp4
Rp5
(I3
S'<'
p6
NNNI-1
I-1
I0
tp7
bS'\x00\x00\x00\x00\x00\x00\x00\x00'
p8
tp9
Rp10
(lp11
S'temperature'
p12
aS'mouth'
p13
aS'ALSFRS_Total'
p14
aS'Chloride'
p15
aS'fvc_percent'
p16
aS'ALT(SGPT)'
p17
asg1
(g5
S'\x01\x00\x00\x00\x00\x00\x00\x00'
p18
tp19
Rp20
(lp21
S'AST(SGOT)'
p22
aS'pulse'
p23
aS'White Blood Cell (WBC)'
p24
aS'Creatinine'
p25
aS'Blood Urea Nitrogen (BUN)'
p26
ag12
asg1
(g5
S'\x02\x00\x00\x00\x00\x00\x00\x00'
p27
tp28
Rp29
(lp30
S'respiratory'
p31
aS'weight'
p32
aS'Platelets'
p33
aS'onset_delta'
p34
ag15
ag16
asg1
(g5
S'\x03\x00\x00\x00\x00\x00\x00\x00'
p35
tp36
Rp37
(lp38
g31
aS'Potassium'
p39
aS'onset_site'
p40
ag13
ag25
ag14
asg1
(g5
S'\x04\x00\x00\x00\x00\x00\x00\x00'
p41
tp42
Rp43
(lp44
S'Alkaline Phosphatase'
p45
ag22
ag23
aS'Calcium'
p46
ag25
aS'Glucose'
p47
as.