(dp0
cnumpy.core.multiarray
scalar
p1
(cnumpy
dtype
p2
(S'i8'
p3
I0
I1
tp4
Rp5
(I3
S'<'
p6
NNNI-1
I-1
I0
tp7
bS'\x00\x00\x00\x00\x00\x00\x00\x00'
p8
tp9
Rp10
(lp11
S'Age'
p12
aS'BMI'
p13
aS'Gender'
p14
aS'family_ALS_hist'
p15
aS'fvc_percent'
p16
aS'height'
p17
asg1
(g5
S'\x01\x00\x00\x00\x00\x00\x00\x00'
p18
tp19
Rp20
(lp21
g12
ag13
ag14
aS'Race'
p22
ag17
aS'pulse'
p23
asg1
(g5
S'\x02\x00\x00\x00\x00\x00\x00\x00'
p24
tp25
Rp26
(lp27
g12
ag13
ag14
ag22
aS'bp_systolic'
p28
ag17
as.