(dp0
cnumpy.core.multiarray
scalar
p1
(cnumpy
dtype
p2
(S'i8'
p3
I0
I1
tp4
Rp5
(I3
S'<'
p6
NNNI-1
I-1
I0
tp7
bS'\x00\x00\x00\x00\x00\x00\x00\x00'
p8
tp9
Rp10
(lp11
S'ALSFRS_Total'
p12
aS'White Blood Cell (WBC)'
p13
aS'fvc_percent'
p14
aS'onset_delta'
p15
aS'Creatinine'
p16
aS'Blood Urea Nitrogen (BUN)'
p17
asg1
(g5
S'\x01\x00\x00\x00\x00\x00\x00\x00'
p18
tp19
Rp20
(lp21
S'AST(SGOT)'
p22
ag14
aS'hands'
p23
ag15
ag17
aS'Phosphorus'
p24
asg1
(g5
S'\x02\x00\x00\x00\x00\x00\x00\x00'
p25
tp26
Rp27
(lp28
S'Hemoglobin'
p29
aS'bp_diastolic'
p30
aS'Calcium'
p31
ag15
aS'Bilirubin (Total)'
p32
aS'Glucose'
p33
asg1
(g5
S'\x03\x00\x00\x00\x00\x00\x00\x00'
p34
tp35
Rp36
(lp37
S'bp_systolic'
p38
aS'respiratory_rate'
p39
aS'pulse'
p40
ag16
ag14
ag24
as.