(dp0
cnumpy.core.multiarray
scalar
p1
(cnumpy
dtype
p2
(S'i8'
p3
I0
I1
tp4
Rp5
(I3
S'<'
p6
NNNI-1
I-1
I0
tp7
bS'\x00\x00\x00\x00\x00\x00\x00\x00'
p8
tp9
Rp10
(lp11
S'CK'
p12
aS'pulse'
p13
aS'Calcium'
p14
aS'Race'
p15
aS'ALSFRS_Total'
p16
aS'ALT(SGPT)'
p17
asg1
(g5
S'\x01\x00\x00\x00\x00\x00\x00\x00'
p18
tp19
Rp20
(lp21
g12
aS'weight'
p22
aS'Platelets'
p23
aS'mouth'
p24
aS'Creatinine'
p25
aS'Albumin'
p26
asg1
(g5
S'\x02\x00\x00\x00\x00\x00\x00\x00'
p27
tp28
Rp29
(lp30
S'Alkaline Phosphatase'
p31
aS'Potassium'
p32
ag13
aS'Red Blood Cells (RBC)'
p33
aS'Blood Urea Nitrogen (BUN)'
p34
ag17
asg1
(g5
S'\x03\x00\x00\x00\x00\x00\x00\x00'
p35
tp36
Rp37
(lp38
S'respiratory'
p39
ag22
aS'bp_diastolic'
p40
aS'Bilirubin (Total)'
p41
ag26
ag16
asg1
(g5
S'\x04\x00\x00\x00\x00\x00\x00\x00'
p42
tp43
Rp44
(lp45
S'Hematocrit'
p46
aS'Sodium'
p47
ag24
aS'onset_delta'
p48
aS'Absolute Basophil Count'
p49
ag25
as.