(dp0
cnumpy.core.multiarray
scalar
p1
(cnumpy
dtype
p2
(S'i8'
p3
I0
I1
tp4
Rp5
(I3
S'<'
p6
NNNI-1
I-1
I0
tp7
bS'\x00\x00\x00\x00\x00\x00\x00\x00'
p8
tp9
Rp10
(lp11
S'temperature'
p12
aS'Calcium'
p13
aS'mouth'
p14
aS'onset_delta'
p15
aS'Creatinine'
p16
aS'Chloride'
p17
asg1
(g5
S'\x01\x00\x00\x00\x00\x00\x00\x00'
p18
tp19
Rp20
(lp21
g12
aS'Bicarbonate'
p22
aS'hands'
p23
ag15
aS'fvc_percent'
p24
aS'Glucose'
p25
asg1
(g5
S'\x02\x00\x00\x00\x00\x00\x00\x00'
p26
tp27
Rp28
(lp29
S'weight'
p30
ag14
aS'ALSFRS_Total'
p31
ag15
ag16
ag24
as.