(dp0
cnumpy.core.multiarray
scalar
p1
(cnumpy
dtype
p2
(S'i8'
p3
I0
I1
tp4
Rp5
(I3
S'<'
p6
NNNI-1
I-1
I0
tp7
bS'\x00\x00\x00\x00\x00\x00\x00\x00'
p8
tp9
Rp10
(lp11
S'onset_delta'
p12
aS'ALSFRS_Total'
p13
aS'hands'
p14
aS'fvc_percent'
p15
aS'mouth'
p16
aS'Creatinine'
p17
asg1
(g5
S'\x01\x00\x00\x00\x00\x00\x00\x00'
p18
tp19
Rp20
(lp21
g12
ag15
ag16
ag13
aS'respiratory'
p22
aS'weight'
p23
as.