(dp0
cnumpy.core.multiarray
scalar
p1
(cnumpy
dtype
p2
(S'i8'
p3
I0
I1
tp4
Rp5
(I3
S'<'
p6
NNNI-1
I-1
I0
tp7
bS'\x00\x00\x00\x00\x00\x00\x00\x00'
p8
tp9
Rp10
(lp11
S'onset_delta'
p12
aS'ALSFRS_Total'
p13
aS'hands'
p14
aS'mouth'
p15
aS'fvc_percent'
p16
aS'Creatinine'
p17
asg1
(g5
S'\x01\x00\x00\x00\x00\x00\x00\x00'
p18
tp19
Rp20
(lp21
g12
aS'weight'
p22
aS'White Blood Cell (WBC)'
p23
aS'Bicarbonate'
p24
ag15
aS'Chloride'
p25
asg1
(g5
S'\x02\x00\x00\x00\x00\x00\x00\x00'
p26
tp27
Rp28
(lp29
g12
ag15
ag13
ag16
aS'respiratory'
p30
ag14
as.