(dp0
cnumpy.core.multiarray
scalar
p1
(cnumpy
dtype
p2
(S'i8'
p3
I0
I1
tp4
Rp5
(I3
S'<'
p6
NNNI-1
I-1
I0
tp7
bS'\x00\x00\x00\x00\x00\x00\x00\x00'
p8
tp9
Rp10
(lp11
S'bp_systolic'
p12
aS'Sodium'
p13
aS'bp_diastolic'
p14
aS'Blood Urea Nitrogen (BUN)'
p15
aS'fvc_percent'
p16
aS'ALT(SGPT)'
p17
asg1
(g5
S'\x01\x00\x00\x00\x00\x00\x00\x00'
p18
tp19
Rp20
(lp21
S'pulse'
p22
ag15
aS'onset_delta'
p23
ag17
ag16
aS'Glucose'
p24
asg1
(g5
S'\x02\x00\x00\x00\x00\x00\x00\x00'
p25
tp26
Rp27
(lp28
S'weight'
p29
aS'BMI'
p30
aS'Calcium'
p31
aS'hands'
p32
ag23
aS'ALSFRS_Total'
p33
asg1
(g5
S'\x03\x00\x00\x00\x00\x00\x00\x00'
p34
tp35
Rp36
(lp37
S'AST(SGOT)'
p38
aS'Age'
p39
ag14
aS'Total Cholesterol'
p40
ag23
ag33
asg1
(g5
S'\x04\x00\x00\x00\x00\x00\x00\x00'
p41
tp42
Rp43
(lp44
g13
aS'Platelets'
p45
aS'respiratory_rate'
p46
aS'Protein'
p47
aS'Chloride'
p48
aS'Creatinine'
p49
as.