(dp0
cnumpy.core.multiarray
scalar
p1
(cnumpy
dtype
p2
(S'i8'
p3
I0
I1
tp4
Rp5
(I3
S'<'
p6
NNNI-1
I-1
I0
tp7
bS'\x00\x00\x00\x00\x00\x00\x00\x00'
p8
tp9
Rp10
(lp11
S'AST(SGOT)'
p12
aS'White Blood Cell (WBC)'
p13
aS'Calcium'
p14
aS'Blood Urea Nitrogen (BUN)'
p15
aS'Creatinine'
p16
aS'fvc_percent'
p17
asg1
(g5
S'\x01\x00\x00\x00\x00\x00\x00\x00'
p18
tp19
Rp20
(lp21
g12
ag15
aS'onset_delta'
p22
aS'Chloride'
p23
ag17
aS'Glucose'
p24
asg1
(g5
S'\x02\x00\x00\x00\x00\x00\x00\x00'
p25
tp26
Rp27
(lp28
S'bp_systolic'
p29
aS'Hemoglobin'
p30
aS'Potassium'
p31
ag22
ag16
aS'Albumin'
p32
asg1
(g5
S'\x03\x00\x00\x00\x00\x00\x00\x00'
p33
tp34
Rp35
(lp36
S'Sodium'
p37
ag30
aS'respiratory_rate'
p38
aS'pulse'
p39
ag16
aS'ALT(SGPT)'
p40
as.