(dp0
cnumpy.core.multiarray
scalar
p1
(cnumpy
dtype
p2
(S'i8'
p3
I0
I1
tp4
Rp5
(I3
S'<'
p6
NNNI-1
I-1
I0
tp7
bS'\x00\x00\x00\x00\x00\x00\x00\x00'
p8
tp9
Rp10
(lp11
S'bp_systolic'
p12
aS'Sodium'
p13
aS'Potassium'
p14
aS'ALSFRS_Total'
p15
aS'Creatinine'
p16
aS'Blood Urea Nitrogen (BUN)'
p17
asg1
(g5
S'\x01\x00\x00\x00\x00\x00\x00\x00'
p18
tp19
Rp20
(lp21
S'Alkaline Phosphatase'
p22
aS'weight'
p23
aS'onset_delta'
p24
aS'ALT(SGPT)'
p25
aS'fvc_percent'
p26
aS'Glucose'
p27
asg1
(g5
S'\x02\x00\x00\x00\x00\x00\x00\x00'
p28
tp29
Rp30
(lp31
g23
aS'Hemoglobin'
p32
aS'hands'
p33
ag24
ag16
aS'Phosphorus'
p34
asg1
(g5
S'\x03\x00\x00\x00\x00\x00\x00\x00'
p35
tp36
Rp37
(lp38
S'AST(SGOT)'
p39
aS'Age'
p40
aS'bp_diastolic'
p41
aS'White Blood Cell (WBC)'
p42
ag15
ag27
asg1
(g5
S'\x04\x00\x00\x00\x00\x00\x00\x00'
p43
tp44
Rp45
(lp46
g12
ag13
aS'respiratory_rate'
p47
ag33
ag16
ag25
as.