(dp0
cnumpy.core.multiarray
scalar
p1
(cnumpy
dtype
p2
(S'i8'
p3
I0
I1
tp4
Rp5
(I3
S'<'
p6
NNNI-1
I-1
I0
tp7
bS'\x00\x00\x00\x00\x00\x00\x00\x00'
p8
tp9
Rp10
(lp11
S'Age'
p12
aS'Albumin'
p13
aS'BMI'
p14
aS'Gender'
p15
aS'family_ALS_hist'
p16
aS'height'
p17
asg1
(g5
S'\x01\x00\x00\x00\x00\x00\x00\x00'
p18
tp19
Rp20
(lp21
g12
ag14
ag15
aS'Race'
p22
ag16
ag17
asg1
(g5
S'\x02\x00\x00\x00\x00\x00\x00\x00'
p23
tp24
Rp25
(lp26
g12
ag14
ag15
ag22
ag17
aS'temperature'
p27
as.