ccollections
defaultdict
p0
(c__builtin__
set
p1
tp2
Rp3
S'family_ALS_hist'
p4
g1
((lp5
S'family_ALS_hist_last'
p6
atp7
Rp8
sS'Albumin'
p9
g1
((lp10
S'Albumin_pct_diff'
p11
aS'Albumin_mean'
p12
aS'Albumin_std'
p13
aS'Albumin_mean_slope'
p14
aS'Albumin_last'
p15
aS'Albumin_median'
p16
atp17
Rp18
sS'weight'
p19
g1
((lp20
S'weight_median'
p21
aS'weight_pct_diff'
p22
aS'weight_std'
p23
aS'weight_mean_slope'
p24
aS'weight_mean'
p25
atp26
Rp27
sS'bp_systolic'
p28
g1
((lp29
S'bp_systolic_median'
p30
aS'bp_systolic_pct_diff'
p31
aS'bp_systolic_mean'
p32
aS'bp_systolic_std'
p33
aS'bp_systolic_mean_slope'
p34
atp35
Rp36
sS'Gender'
p37
g1
((lp38
S'M'
p39
aS'F'
p40
atp41
Rp42
sS'Age'
p43
g1
((lp44
S'Age_last'
p45
atp46
Rp47
sS'BMI'
p48
g1
((lp49
S'BMI_last'
p50
atp51
Rp52
sS'bp_diastolic'
p53
g1
((lp54
S'bp_diastolic_mean_slope'
p55
aS'bp_diastolic_pct_diff'
p56
aS'bp_diastolic_median'
p57
aS'bp_diastolic_mean'
p58
aS'bp_diastolic_std'
p59
atp60
Rp61
sS'pulse'
p62
g1
((lp63
S'pulse_median'
p64
aS'pulse_std'
p65
aS'pulse_mean_slope'
p66
aS'pulse_pct_diff'
p67
aS'pulse_mean'
p68
atp69
Rp70
sS'respiratory_rate'
p71
g1
((lp72
S'respiratory_rate_mean_slope'
p73
aS'respiratory_rate_pct_diff'
p74
aS'respiratory_rate_median'
p75
aS'respiratory_rate_mean'
p76
aS'respiratory_rate_std'
p77
atp78
Rp79
sS'Race'
p80
g1
((lp81
S'Unknown'
p82
aS'Hispanic'
p83
aS'Other'
p84
aS'Black'
p85
aS'Asian'
p86
aS'White'
p87
atp88
Rp89
sS'ALSFRS_Total'
p90
g1
((lp91
S'ALSFRS_Total_std'
p92
aS'ALSFRS_Total_mean'
p93
aS'ALSFRS_Total_mean_slope'
p94
aS'ALSFRS_Total_median'
p95
aS'ALSFRS_Total_last'
p96
aS'ALSFRS_Total_pct_diff'
p97
atp98
Rp99
sS'onset_delta'
p100
g1
((lp101
S'onset_delta_last'
p102
atp103
Rp104
sS'Creatinine'
p105
g1
((lp106
S'Creatinine_std'
p107
aS'Creatinine_mean_slope'
p108
aS'Creatinine_last'
p109
aS'Creatinine_mean'
p110
aS'Creatinine_pct_diff'
p111
aS'Creatinine_median'
p112
atp113
Rp114
sS'height'
p115
g1
((lp116
S'height_last'
p117
atp118
Rp119
sS'fvc_percent'
p120
g1
((lp121
S'fvc_percent_pct_diff'
p122
atp123
Rp124
sS'temperature'
p125
g1
((lp126
S'temperature_pct_diff'
p127
aS'temperature_std'
p128
aS'temperature_mean_slope'
p129
aS'temperature_median'
p130
aS'temperature_mean'
p131
atp132
Rp133
s.