ccopy_reg
_reconstructor
p0
(cpandas.core.series
Series
p1
c__builtin__
object
p2
Ntp3
Rp4
(dp5
S'_data'
p6
g0
(cpandas.core.internals
SingleBlockManager
p7
g2
Ntp8
Rp9
((lp10
cpandas.core.index
_new_Index
p11
(cpandas.core.index
Index
p12
(dp13
S'data'
p14
cnumpy.core.multiarray
_reconstruct
p15
(cnumpy
ndarray
p16
(I0
tp17
S'b'
p18
tp19
Rp20
(I1
(L62L
tp21
cnumpy
dtype
p22
(S'O8'
p23
I0
I1
tp24
Rp25
(I3
S'|'
p26
NNNI-1
I-1
I63
tp27
bI00
(lp28
S'family_ALS_hist_last'
p29
aS'weight_pct_diff'
p30
aS'weight_mean_slope'
p31
aS'weight_mean'
p32
aS'weight_median'
p33
aS'weight_std'
p34
aS'F'
p35
aS'M'
p36
aS'Age_last'
p37
aS'respiratory_rate_pct_diff'
p38
aS'respiratory_rate_mean_slope'
p39
aS'respiratory_rate_mean'
p40
aS'respiratory_rate_median'
p41
aS'respiratory_rate_std'
p42
aS'pulse_pct_diff'
p43
aS'pulse_mean_slope'
p44
aS'pulse_mean'
p45
aS'pulse_median'
p46
aS'pulse_std'
p47
aS'height_last'
p48
aS'Asian'
p49
aS'Black'
p50
aS'Hispanic'
p51
aS'Other'
p52
aS'Unknown'
p53
aS'White'
p54
aS'onset_delta_last'
p55
aS'Albumin_pct_diff'
p56
aS'Albumin_last'
p57
aS'Albumin_mean_slope'
p58
aS'Albumin_mean'
p59
aS'Albumin_median'
p60
aS'Albumin_std'
p61
aS'ALSFRS_Total_pct_diff'
p62
aS'ALSFRS_Total_last'
p63
aS'ALSFRS_Total_mean_slope'
p64
aS'ALSFRS_Total_mean'
p65
aS'ALSFRS_Total_median'
p66
aS'ALSFRS_Total_std'
p67
aS'temperature_pct_diff'
p68
aS'temperature_mean_slope'
p69
aS'temperature_mean'
p70
aS'temperature_median'
p71
aS'temperature_std'
p72
aS'bp_systolic_pct_diff'
p73
aS'bp_systolic_mean_slope'
p74
aS'bp_systolic_mean'
p75
aS'bp_systolic_median'
p76
aS'bp_systolic_std'
p77
aS'BMI_last'
p78
aS'bp_diastolic_pct_diff'
p79
aS'bp_diastolic_mean_slope'
p80
aS'bp_diastolic_mean'
p81
aS'bp_diastolic_median'
p82
aS'bp_diastolic_std'
p83
aS'Creatinine_pct_diff'
p84
aS'Creatinine_last'
p85
aS'Creatinine_mean_slope'
p86
aS'Creatinine_mean'
p87
aS'Creatinine_median'
p88
aS'Creatinine_std'
p89
aS'fvc_percent_pct_diff'
p90
atp91
bsS'name'
p92
Nstp93
Rp94
a(lp95
g15
(g16
(I0
tp96
g18
tp97
Rp98
(I1
(L62L
tp99
g22
(S'f8'
p100
I0
I1
tp101
Rp102
(I3
S'<'
p103
NNNI-1
I-1
I0
tp104
bI00
S'\x9b\xab\xb9\x9a\xab\xb9\xca?\x169\x8c\x04\xf5<\xfd>\\\x1e\xf6\x91`Sr?\x0b\x8aeSF\xf9R@\xf2r-= \xfdR@\xa8\x03\xbc:sW\xf3?\xdfE\xcbM$D\xd7?\x11]\x1a\xd9\xed]\xe4?\xae\xea\xd3QH*K@\xd4\xeaf\xac`)C?l[\x0c\t\xac\xb4x?\xda\x8f\x96[/~1@\xc4\x12\x8e\xea\xefs1@\x7f\x95\xe0\x82\x19K\xfd?\xbb\xfb\x1e\xa7?\xbb3?k\xf8\x0e\x9f\xa7\xcc\x84?\x14c\xb5\xf5\xb7\xecR@) \xe1\'\x17\xe2R@\x05\xbaNc\xbct\x1a@\x02\xe0Y\xba\x86Re@\xeb~\x7f;\x93"\x80?\x0f\x07\xbf\xf2\x1b\x1e\x8f?{l\xffC\xa8pr?\xb8"\xffe\xfc\xa8[?Bc?\xc8\xb2\x97\x93?d\x0cJ\xde\x89s\xee?HL\xb4\xd8\x8bl\x85\xc0\rm|<l\xb6"\xbf\xc7\xbe\x16g"\xd7E@\x11#e&TQ\x98\xbf7+\x98z\xdd\xf0E@D\xaa\xe7p\x99\xedE@\x00\x98#"\x13G\xfa?_H#e\x95\xbaB\xbfu\xf2=rW\xb1=@i\x1a{de\xe7\x90\xbfr\xc7\xc5\x91\x8a\\>@\xeb\xa0\xd3s\x9cb>@@\x06\xb8Qh\x97\xf4?\x0f\xb9\x8a%\x8f=\x10?\xceb "\xea\x127\xbf\xfd\x96\x0fC\xa7JB@\xab\xd60\x13\x9fIB@y,\xf6\xe0\xe7\x9f\xda?H\x8c\x18\xb8\xc3\xc0 \xbfT\xa5\x98\xa8\x81E\xb2\xbfm\xb6\xc9P\x02e`@\x93\x02\x12~r_`@\xe3P8\x10\xad\xfb!@\xd7]TX\x02!e?\x1cUsD/\x83\x06?\xf0\xe4\x16P\xe1\x87\x8a\xbf\xd3\xb0`TGST@\rZv<\xa7ZT@\xbc\xf16\xb5\xfd\x93\x18@Ov::\x00<\xa1?\x83\x867$\x97EQ@\xde\x1a~\xaa\x7f\\\xc6\xbf\xc5K\xef\xd4\x14\x87Q@\x8ck\x0cc\xb9rQ@\x9d\x81I\xc1\xa1\x8b\x18@dS\xabF\x97\xf0G\xbf'
p105
tp106
ba(lp107
g11
(g12
(dp108
g14
g15
(g16
(I0
tp109
g18
tp110
Rp111
(I1
(L62L
tp112
g25
I00
(lp113
g29
ag30
ag31
ag32
ag33
ag34
ag35
ag36
ag37
ag38
ag39
ag40
ag41
ag42
ag43
ag44
ag45
ag46
ag47
ag48
ag49
ag50
ag51
ag52
ag53
ag54
ag55
ag56
ag57
ag58
ag59
ag60
ag61
ag62
ag63
ag64
ag65
ag66
ag67
ag68
ag69
ag70
ag71
ag72
ag73
ag74
ag75
ag76
ag77
ag78
ag79
ag80
ag81
ag82
ag83
ag84
ag85
ag86
ag87
ag88
ag89
ag90
atp114
bsg92
Nstp115
Rp116
a(dp117
S'0.14.1'
p118
(dp119
S'axes'
p120
g10
sS'blocks'
p121
(lp122
(dp123
S'mgr_locs'
p124
c__builtin__
slice
p125
(I0
I62
I1
tp126
Rp127
sS'values'
p128
g98
sasstp129
bsg92
Nsb.