ccopy_reg
_reconstructor
p0
(cpandas.core.series
Series
p1
c__builtin__
object
p2
Ntp3
Rp4
(dp5
S'_data'
p6
g0
(cpandas.core.internals
SingleBlockManager
p7
g2
Ntp8
Rp9
((lp10
cpandas.core.index
_new_Index
p11
(cpandas.core.index
Index
p12
(dp13
S'data'
p14
cnumpy.core.multiarray
_reconstruct
p15
(cnumpy
ndarray
p16
(I0
tp17
S'b'
p18
tp19
Rp20
(I1
(L23L
tp21
cnumpy
dtype
p22
(S'O8'
p23
I0
I1
tp24
Rp25
(I3
S'|'
p26
NNNI-1
I-1
I63
tp27
bI00
(lp28
S'family_ALS_hist_last'
p29
aS'bp_systolic_pct_diff'
p30
aS'F'
p31
aS'M'
p32
aS'Age_last'
p33
aS'respiratory_rate_pct_diff'
p34
aS'pulse_pct_diff'
p35
aS'height_last'
p36
aS'Asian'
p37
aS'Black'
p38
aS'Hispanic'
p39
aS'Other'
p40
aS'Unknown'
p41
aS'White'
p42
aS'onset_delta_last'
p43
aS'Albumin_pct_diff'
p44
aS'ALSFRS_Total_pct_diff'
p45
aS'temperature_pct_diff'
p46
aS'weight_pct_diff'
p47
aS'BMI_last'
p48
aS'bp_diastolic_pct_diff'
p49
aS'Creatinine_pct_diff'
p50
aS'fvc_percent_pct_diff'
p51
atp52
bsS'name'
p53
Nstp54
Rp55
a(lp56
g15
(g16
(I0
tp57
g18
tp58
Rp59
(I1
(L23L
tp60
g22
(S'f8'
p61
I0
I1
tp62
Rp63
(I3
S'<'
p64
NNNI-1
I-1
I0
tp65
bI00
S'\x9b\xab\xb9\x9a\xab\xb9\xca?H\x8c\x18\xb8\xc3\xc0 \xbf\xdfE\xcbM$D\xd7?\x11]\x1a\xd9\xed]\xe4?\xae\xea\xd3QH*K@\xd4\xeaf\xac`)C?\xbb\xfb\x1e\xa7?\xbb3?\x02\xe0Y\xba\x86Re@\xeb~\x7f;\x93"\x80?\x0f\x07\xbf\xf2\x1b\x1e\x8f?{l\xffC\xa8pr?\xb8"\xffe\xfc\xa8[?Bc?\xc8\xb2\x97\x93?d\x0cJ\xde\x89s\xee?HL\xb4\xd8\x8bl\x85\xc0\rm|<l\xb6"\xbf_H#e\x95\xbaB\xbf\x0f\xb9\x8a%\x8f=\x10?\x169\x8c\x04\xf5<\xfd>\xd7]TX\x02!e?\x1cUsD/\x83\x06?Ov::\x00<\xa1?dS\xabF\x97\xf0G\xbf'
p66
tp67
ba(lp68
g11
(g12
(dp69
g14
g15
(g16
(I0
tp70
g18
tp71
Rp72
(I1
(L23L
tp73
g25
I00
(lp74
g29
ag30
ag31
ag32
ag33
ag34
ag35
ag36
ag37
ag38
ag39
ag40
ag41
ag42
ag43
ag44
ag45
ag46
ag47
ag48
ag49
ag50
ag51
atp75
bsg53
Nstp76
Rp77
a(dp78
S'0.14.1'
p79
(dp80
S'axes'
p81
g10
sS'blocks'
p82
(lp83
(dp84
S'mgr_locs'
p85
c__builtin__
slice
p86
(I0
I23
I1
tp87
Rp88
sS'values'
p89
g59
sasstp90
bsg53
Nsb.