(dp0
S'model'
p1
ccopy_reg
_reconstructor
p2
(csklearn.grid_search
GridSearchCV
p3
c__builtin__
object
p4
Ntp5
Rp6
(dp7
S'scoring'
p8
NsS'n_jobs'
p9
I1
sS'verbose'
p10
I0
sS'fit_params'
p11
(dp12
sS'refit'
p13
I01
sS'iid'
p14
I01
sS'estimator'
p15
g2
(csklearn.svm.classes
SVC
p16
g4
Ntp17
Rp18
(dp19
S'_impl'
p20
S'c_svc'
p21
sS'kernel'
p22
S'rbf'
p23
sS'C'
p24
F1.0
sg10
I00
sS'probability'
p25
I00
sS'degree'
p26
I3
sS'epsilon'
p27
F0.0
sS'shrinking'
p28
I01
sS'max_iter'
p29
I-1
sS'random_state'
p30
NsS'tol'
p31
F0.001
sS'cache_size'
p32
I200
sS'coef0'
p33
F0.0
sS'nu'
p34
F0.0
sS'gamma'
p35
F0.0
sS'class_weight'
p36
NsbsS'error_score'
p37
S'raise'
p38
sS'pre_dispatch'
p39
S'2*n_jobs'
p40
sS'param_grid'
p41
(lp42
(dp43
g22
(lp44
g23
asg24
(lp45
I1
aI10
aI100
aI1000
asg35
(lp46
F0.1
aF0.01
aF0.001
asasS'cv'
p47
Nsbs.